Certificate:
    Data:
        Version: 3 (0x2)
        Serial Number: 0 (0x0)
        Signature Algorithm: md5WithRSAEncryption
        Issuer: C=GR, ST=Attiki, L=Athina, O=GNUTLS, OU=GNUTLS dev., CN=GNUTLS TEST CA/Email=gnutls-dev@gnupg.org
        Validity
            Not Before: Jul  7 10:18:36 2001 GMT
            Not After : Jul  5 10:18:36 2011 GMT
        Subject: C=GR, ST=Attiki, L=Athina, O=GNUTLS, OU=GNUTLS dev., CN=GNUTLS TEST CA/Email=gnutls-dev@gnupg.org
        Subject Public Key Info:
            Public Key Algorithm: rsaEncryption
            RSA Public Key: (1024 bit)
                Modulus (1024 bit):
                    00:ca:fe:f3:02:cc:43:b0:61:22:2a:61:5d:c4:5c:
                    93:3e:2a:5e:82:64:f6:89:0e:8f:cf:2c:a6:29:d0:
                    4f:ec:73:c0:08:fb:6c:cc:7d:19:42:c1:cd:2e:83:
                    9f:a7:22:29:13:4a:ed:08:92:c2:5f:7f:b9:9b:12:
                    eb:15:21:d2:52:5e:16:80:35:0b:3b:16:aa:48:e0:
                    aa:2d:6c:db:81:4a:a2:3e:c0:89:5b:4e:0f:01:f7:
                    8a:5d:00:3f:f8:6e:5a:02:81:ce:a6:d6:b4:47:3b:
                    2a:1e:10:f8:c9:ae:49:01:42:f8:ca:7e:bc:d5:f7:
                    e9:23:81:6f:36:19:c3:db:c7
                Exponent: 65537 (0x10001)
        X509v3 extensions:
            X509v3 Basic Constraints: critical
                CA:TRUE
            X509v3 Subject Key Identifier: 
                EF:EE:94:AB:C8:CA:57:7F:53:13:DB:76:DC:1A:95:00:93:BA:F3:C9
    Signature Algorithm: md5WithRSAEncryption
        a0:5c:bc:18:41:68:a8:5d:e3:9d:da:15:4b:5b:8a:e7:f6:94:
        6a:cb:68:45:b1:a4:ce:82:4c:a6:df:51:a2:12:bb:ed:8d:3c:
        5f:7b:95:07:37:de:81:c6:da:81:84:77:c0:97:78:e9:06:4a:
        8d:4b:10:03:84:5a:52:3b:ca:bc:c1:59:ff:3b:93:e5:6b:03:
        88:00:73:c0:20:c7:8a:e6:31:9f:5d:f9:30:ad:ec:fd:73:a8:
        fc:4f:bb:4e:86:25:4e:f7:92:a0:ea:72:e5:ea:73:64:d3:02:
        a8:87:8e:00:20:9f:d4:77:b2:1b:f6:3c:9e:c1:4f:09:fd:38:
        f3:bd
-----BEGIN CERTIFICATE-----
MIIC0jCCAjugAwIBAgIBADANBgkqhkiG9w0BAQQFADCBlDELMAkGA1UEBhMCR1Ix
DzANBgNVBAgTBkF0dGlraTEPMA0GA1UEBxMGQXRoaW5hMQ8wDQYDVQQKEwZHTlVU
TFMxFDASBgNVBAsTC0dOVVRMUyBkZXYuMRcwFQYDVQQDEw5HTlVUTFMgVEVTVCBD
QTEjMCEGCSqGSIb3DQEJARYUZ251dGxzLWRldkBnbnVwZy5vcmcwHhcNMDEwNzA3
MTAxODM2WhcNMTEwNzA1MTAxODM2WjCBlDELMAkGA1UEBhMCR1IxDzANBgNVBAgT
BkF0dGlraTEPMA0GA1UEBxMGQXRoaW5hMQ8wDQYDVQQKEwZHTlVUTFMxFDASBgNV
BAsTC0dOVVRMUyBkZXYuMRcwFQYDVQQDEw5HTlVUTFMgVEVTVCBDQTEjMCEGCSqG
SIb3DQEJARYUZ251dGxzLWRldkBnbnVwZy5vcmcwgZ8wDQYJKoZIhvcNAQEBBQAD
gY0AMIGJAoGBAMr+8wLMQ7BhIiphXcRckz4qXoJk9okOj88spinQT+xzwAj7bMx9
GULBzS6Dn6ciKRNK7QiSwl9/uZsS6xUh0lJeFoA1CzsWqkjgqi1s24FKoj7AiVtO
DwH3il0AP/huWgKBzqbWtEc7Kh4Q+MmuSQFC+Mp+vNX36SOBbzYZw9vHAgMBAAGj
MjAwMA8GA1UdEwEB/wQFMAMBAf8wHQYDVR0OBBYEFO/ulKvIyld/UxPbdtwalQCT
uvPJMA0GCSqGSIb3DQEBBAUAA4GBAKBcvBhBaKhd453aFUtbiuf2lGrLaEWxpM6C
TKbfUaISu+2NPF97lQc33oHG2oGEd8CXeOkGSo1LEAOEWlI7yrzBWf87k+VrA4gA
c8Agx4rmMZ9d+TCt7P1zqPxPu06GJU73kqDqcuXqc2TTAqiHjgAgn9R3shv2PJ7B
Twn9OPO9
-----END CERTIFICATE-----
