Certificate:
    Data:
        Version: 3 (0x2)
        Serial Number: 1 (0x1)
        Signature Algorithm: md5WithRSAEncryption
        Issuer: C=GR, ST=Attiki, L=Athina, O=GNUTLS, OU=GNUTLS dev., CN=GNUTLS TEST CA/Email=gnutls-dev@gnupg.org
        Validity
            Not Before: Jul  7 10:18:45 2001 GMT
            Not After : Jul  7 10:18:45 2002 GMT
        Subject: C=GR, ST=Attiki, L=Athina, O=GNUTLS, OU=GNUTLS dev., CN=localhost/Email=root@localhost
        Subject Public Key Info:
            Public Key Algorithm: rsaEncryption
            RSA Public Key: (1024 bit)
                Modulus (1024 bit):
                    00:d0:0b:49:eb:b2:26:d9:51:f5:cc:57:07:21:99:
                    dd:f2:87:68:3d:2d:a1:a0:ef:cc:96:bf:f7:31:64:
                    77:7c:78:c3:99:1e:92:ed:a6:65:84:e7:b9:7b:ab:
                    4b:e6:8d:59:5d:22:55:57:e0:1e:7e:57:b5:c3:5c:
                    04:b4:91:94:8c:5c:42:7a:d5:88:d8:c6:98:97:64:
                    99:6d:6d:44:e1:7b:65:cc:fc:86:f3:b4:84:2d:e5:
                    59:b7:30:c1:de:3a:ef:1c:e1:a3:28:af:f8:a3:57:
                    eb:a9:11:e1:f7:e8:fc:15:98:e2:1e:4b:f7:21:74:
                    8c:58:7f:50:cf:46:15:7d:95
                Exponent: 65537 (0x10001)
        X509v3 extensions:
            X509v3 Authority Key Identifier: 
                keyid:EF:EE:94:AB:C8:CA:57:7F:53:13:DB:76:DC:1A:95:00:93:BA:F3:C9

            X509v3 Extended Key Usage: 
                TLS Web Server Authentication, TLS Web Client Authentication, Microsoft Server Gated Crypto, Netscape Server Gated Crypto
            X509v3 Basic Constraints: critical
                CA:FALSE
    Signature Algorithm: md5WithRSAEncryption
        b7:39:45:27:3a:f2:a3:95:ec:54:bf:5d:c6:69:d9:53:88:5a:
        9d:81:1a:3b:92:90:9d:24:79:2d:36:a4:4e:c2:7e:1c:46:3a:
        f8:73:8b:ef:d2:9b:31:1c:ce:8c:6d:96:61:be:c3:09:11:da:
        ab:b3:9b:88:13:38:2b:32:d2:e2:59:58:1e:bc:d2:6c:49:5c:
        08:39:84:76:39:66:ff:35:d1:de:fe:43:28:91:e6:10:c8:50:
        72:57:8d:a7:42:32:44:a8:f5:99:7b:41:a1:f4:4e:61:f4:f2:
        2c:94:37:57:75:05:5a:5e:72:f2:5d:5e:45:57:46:7a:91:bd:
        42:51
-----BEGIN CERTIFICATE-----
MIIC/DCCAmWgAwIBAgIBATANBgkqhkiG9w0BAQQFADCBlDELMAkGA1UEBhMCR1Ix
DzANBgNVBAgTBkF0dGlraTEPMA0GA1UEBxMGQXRoaW5hMQ8wDQYDVQQKEwZHTlVU
TFMxFDASBgNVBAsTC0dOVVRMUyBkZXYuMRcwFQYDVQQDEw5HTlVUTFMgVEVTVCBD
QTEjMCEGCSqGSIb3DQEJARYUZ251dGxzLWRldkBnbnVwZy5vcmcwHhcNMDEwNzA3
MTAxODQ1WhcNMDIwNzA3MTAxODQ1WjCBiTELMAkGA1UEBhMCR1IxDzANBgNVBAgT
BkF0dGlraTEPMA0GA1UEBxMGQXRoaW5hMQ8wDQYDVQQKEwZHTlVUTFMxFDASBgNV
BAsTC0dOVVRMUyBkZXYuMRIwEAYDVQQDEwlsb2NhbGhvc3QxHTAbBgkqhkiG9w0B
CQEWDnJvb3RAbG9jYWxob3N0MIGfMA0GCSqGSIb3DQEBAQUAA4GNADCBiQKBgQDQ
C0nrsibZUfXMVwchmd3yh2g9LaGg78yWv/cxZHd8eMOZHpLtpmWE57l7q0vmjVld
IlVX4B5+V7XDXAS0kZSMXEJ61YjYxpiXZJltbUThe2XM/IbztIQt5Vm3MMHeOu8c
4aMor/ijV+upEeH36PwVmOIeS/chdIxYf1DPRhV9lQIDAQABo2cwZTAfBgNVHSME
GDAWgBTv7pSryMpXf1MT23bcGpUAk7rzyTA0BgNVHSUELTArBggrBgEFBQcDAQYI
KwYBBQUHAwIGCisGAQQBgjcKAwMGCWCGSAGG+EIEATAMBgNVHRMBAf8EAjAAMA0G
CSqGSIb3DQEBBAUAA4GBALc5RSc68qOV7FS/XcZp2VOIWp2BGjuSkJ0keS02pE7C
fhxGOvhzi+/SmzEczoxtlmG+wwkR2quzm4gTOCsy0uJZWB680mxJXAg5hHY5Zv81
0d7+QyiR5hDIUHJXjadCMkSo9Zl7QaH0TmH08iyUN1d1BVpecvJdXkVXRnqRvUJR
-----END CERTIFICATE-----
