Certificate:
    Data:
        Version: 3 (0x2)
        Serial Number: 5 (0x5)
        Signature Algorithm: md5WithRSAEncryption
        Issuer: C=GR, ST=Attiki, L=Athina, O=GNUTLS, OU=GNUTLS dev., CN=GNUTLS TEST CA/Email=gnutls-dev@gnupg.org
        Validity
            Not Before: Jan 26 21:12:49 2002 GMT
            Not After : Jan 26 21:12:49 2003 GMT
        Subject: CN=Mr. User DSA/Email=kaka@hello.org
        Subject Public Key Info:
            Public Key Algorithm: dsaEncryption
            DSA Public Key:
                pub: 
                    06:b3:60:21:4e:d8:6d:45:99:2f:68:7f:59:b0:eb:
                    3d:c4:c1:c9:aa:af:f8:3e:bc:a5:65:ca:40:1c:2f:
                    8a:cf:41:aa:5c:d9:80:6c:8e:db:00:f0:a0:02:75:
                    31:a4:33:61:f7:12:b5:f4:33:87:4f:26:9e:c1:18:
                    5a:e4:1c:00:42:67:79:5b:09:c0:95:e5:d3:73:da:
                    6e:27:00:37:9e:db:9c:5b:d0:9e:88:16:bb:1b:46:
                    f1:51:f9:11:1d:65:64:51:bb:bb:23:d6:04:84:55:
                    73:93:e9:06:23:d2:b9:ec:96:8e:98:24:f2:5a:64:
                    b4:52:ca:c6:82:86:b2:03
                P:   
                    00:ac:18:75:bc:98:81:29:9c:ef:3f:82:d2:cf:64:
                    a5:d8:84:3f:bf:27:a2:fa:a6:fc:62:16:6a:29:8d:
                    43:30:61:01:89:95:7c:25:16:74:4a:f9:3f:0e:95:
                    8c:a8:d0:cc:39:ea:6d:fb:58:25:bd:26:5a:3a:11:
                    06:1e:cc:3b:18:8f:d0:2c:8d:d7:a8:8f:ab:5c:f1:
                    6c:74:cb:e3:74:8c:f2:19:e1:32:e5:4c:09:b9:70:
                    dc:b1:41:b1:53:8b:eb:17:ed:a8:9b:93:b9:ff:9b:
                    0b:3a:fe:0e:be:7c:5c:ed:e5:45:2f:c4:24:10:65:
                    76:72:32:9f:5c:21:22:01:e5
                Q:   
                    00:e2:3a:5f:d8:8b:12:26:94:b4:ad:e8:88:47:08:
                    6f:1b:1e:23:b1:83
                G:   
                    4f:4a:70:d2:f4:d0:7d:34:2c:81:2c:28:89:3a:d5:
                    4c:fb:8c:53:45:26:c1:36:99:b1:b6:45:ed:ed:89:
                    91:7f:1f:55:f7:63:9b:93:3e:9f:5d:1e:62:92:3d:
                    6c:24:26:0d:8d:fd:83:6b:ba:e8:bf:f8:67:5a:6e:
                    34:5f:a2:ba:6b:f4:a3:30:2f:48:6a:77:d1:09:cb:
                    55:fe:be:6c:f1:ce:b3:18:02:8c:0c:1e:ed:09:e1:
                    e2:2f:11:89:f8:27:90:f8:de:af:f2:b5:4e:b4:d7:
                    98:77:9a:e6:f5:2d:4d:93:e7:39:da:00:56:94:6f:
                    89:b6:ed:14:fc:14:a4:ad
        X509v3 extensions:
            X509v3 Subject Alternative Name: 
                email:kaka@hello.org
            X509v3 Basic Constraints: critical
                CA:FALSE
            X509v3 Authority Key Identifier: 
                keyid:EF:EE:94:AB:C8:CA:57:7F:53:13:DB:76:DC:1A:95:00:93:BA:F3:C9

            X509v3 Extended Key Usage: 
                TLS Web Client Authentication, E-mail Protection
    Signature Algorithm: md5WithRSAEncryption
        47:23:64:2c:ca:d1:59:3e:d1:dc:71:01:44:94:22:a7:b6:29:
        14:a0:20:21:40:ed:88:c3:dd:67:60:8c:8a:c8:04:c5:40:db:
        4a:54:00:22:e4:0a:47:70:a4:87:50:43:97:13:2c:6e:6f:57:
        31:61:3d:73:bb:36:38:61:a5:ba:79:f2:75:9f:2c:6c:1d:6a:
        a8:2f:e8:25:22:ab:6a:87:6f:fb:85:9b:f7:fb:32:0e:70:e4:
        6b:e3:db:2b:23:fb:df:4f:da:51:fb:72:90:6f:03:03:8b:39:
        c9:a3:b7:12:4f:96:f2:17:70:34:2a:fe:91:a4:b4:1e:10:78:
        94:2c
-----BEGIN CERTIFICATE-----
MIIDxDCCAy2gAwIBAgIBBTANBgkqhkiG9w0BAQQFADCBlDELMAkGA1UEBhMCR1Ix
DzANBgNVBAgTBkF0dGlraTEPMA0GA1UEBxMGQXRoaW5hMQ8wDQYDVQQKEwZHTlVU
TFMxFDASBgNVBAsTC0dOVVRMUyBkZXYuMRcwFQYDVQQDEw5HTlVUTFMgVEVTVCBD
QTEjMCEGCSqGSIb3DQEJARYUZ251dGxzLWRldkBnbnVwZy5vcmcwHhcNMDIwMTI2
MjExMjQ5WhcNMDMwMTI2MjExMjQ5WjA2MRUwEwYDVQQDEwxNci4gVXNlciBEU0Ex
HTAbBgkqhkiG9w0BCQEWDmtha2FAaGVsbG8ub3JnMIIBtjCCASsGByqGSM44BAEw
ggEeAoGBAKwYdbyYgSmc7z+C0s9kpdiEP78novqm/GIWaimNQzBhAYmVfCUWdEr5
Pw6VjKjQzDnqbftYJb0mWjoRBh7MOxiP0CyN16iPq1zxbHTL43SM8hnhMuVMCblw
3LFBsVOL6xftqJuTuf+bCzr+Dr58XO3lRS/EJBBldnIyn1whIgHlAhUA4jpf2IsS
JpS0reiIRwhvGx4jsYMCgYBPSnDS9NB9NCyBLCiJOtVM+4xTRSbBNpmxtkXt7YmR
fx9V92Obkz6fXR5ikj1sJCYNjf2Da7rov/hnWm40X6K6a/SjMC9IanfRCctV/r5s
8c6zGAKMDB7tCeHiLxGJ+CeQ+N6v8rVOtNeYd5rm9S1Nk+c52gBWlG+Jtu0U/BSk
rQOBhAACgYAGs2AhTthtRZkvaH9ZsOs9xMHJqq/4PrylZcpAHC+Kz0GqXNmAbI7b
APCgAnUxpDNh9xK19DOHTyaewRha5BwAQmd5WwnAleXTc9puJwA3ntucW9CeiBa7
G0bxUfkRHWVkUbu7I9YEhFVzk+kGI9K57JaOmCTyWmS0UsrGgoayA6NrMGkwGQYD
VR0RBBIwEIEOa2FrYUBoZWxsby5vcmcwDAYDVR0TAQH/BAIwADAfBgNVHSMEGDAW
gBTv7pSryMpXf1MT23bcGpUAk7rzyTAdBgNVHSUEFjAUBggrBgEFBQcDAgYIKwYB
BQUHAwQwDQYJKoZIhvcNAQEEBQADgYEARyNkLMrRWT7R3HEBRJQip7YpFKAgIUDt
iMPdZ2CMisgExUDbSlQAIuQKR3Ckh1BDlxMsbm9XMWE9c7s2OGGlunnydZ8sbB1q
qC/oJSKraodv+4Wb9/syDnDka+PbKyP730/aUftykG8DA4s5yaO3Ek+W8hdwNCr+
kaS0HhB4lCw=
-----END CERTIFICATE-----
