Certificate:
    Data:
        Version: 3 (0x2)
        Serial Number: 2 (0x2)
        Signature Algorithm: md5WithRSAEncryption
        Issuer: C=GR, ST=Attiki, L=Athina, O=GNUTLS TEST CA, OU=GNUTLS DEVEL., CN=GNUTLS TEST CA/Email=nmav@hellug.gr
        Validity
            Not Before: Aug  6 19:51:34 2001 GMT
            Not After : Aug  6 19:51:34 2002 GMT
        Subject: CN=Mr. Client/Email=client@hello.org
        Subject Public Key Info:
            Public Key Algorithm: rsaEncryption
            RSA Public Key: (1024 bit)
                Modulus (1024 bit):
                    00:e5:8a:96:25:ba:98:6d:4a:34:02:e8:80:41:50:
                    a1:b7:09:ad:b0:ec:43:bc:ec:ab:35:d3:7c:62:5a:
                    08:02:1e:6e:f8:e4:d0:2b:4d:6a:4c:89:19:74:a3:
                    17:f4:ae:f9:f8:7d:e2:8c:71:56:9c:48:3d:5b:1e:
                    e5:22:ce:e5:39:d6:75:cd:30:36:c4:e0:25:bc:74:
                    c1:ce:64:70:48:d4:d6:a7:94:62:d4:80:4a:bf:ae:
                    e4:5d:e5:f3:0a:e7:6c:54:84:47:29:d0:89:f9:75:
                    16:92:40:27:be:42:b6:be:ad:e2:27:93:4e:96:e6:
                    38:ec:b1:bb:90:69:47:b0:09
                Exponent: 65537 (0x10001)
        X509v3 extensions:
            X509v3 Subject Alternative Name: 
                email:client@hello.org
            X509v3 Basic Constraints: critical
                CA:FALSE
            X509v3 Authority Key Identifier: 
                keyid:84:90:E8:0D:36:F0:72:E9:BD:05:A5:88:39:D7:11:C6:5A:56:45:BC

            X509v3 Extended Key Usage: 
                TLS Web Client Authentication, E-mail Protection
    Signature Algorithm: md5WithRSAEncryption
        2c:b4:1e:18:cf:ce:12:61:a6:1c:83:4c:4a:df:4f:d8:58:8b:
        54:96:8e:06:d6:80:bb:0d:82:15:81:c8:e2:eb:eb:ce:1c:8b:
        da:98:90:64:5b:88:0b:a7:1f:93:c7:81:c3:69:9e:d9:e5:d4:
        3c:d2:b6:47:71:7a:46:59:5d:38:ac:8f:9f:22:39:8d:73:e5:
        73:ad:59:bc:e7:a8:ac:2d:8a:54:60:90:ea:3d:86:18:d6:f4:
        32:7a:5d:c0:8d:2f:59:1c:ca:71:1d:7d:52:7f:75:24:ad:66:
        24:b3:1d:66:ae:c1:48:81:5d:e9:8f:0b:f9:d8:8f:94:e6:93:
        c6:fa
-----BEGIN CERTIFICATE-----
MIICsjCCAhugAwIBAgIBAjANBgkqhkiG9w0BAQQFADCBmDELMAkGA1UEBhMCR1Ix
DzANBgNVBAgTBkF0dGlraTEPMA0GA1UEBxMGQXRoaW5hMRcwFQYDVQQKEw5HTlVU
TFMgVEVTVCBDQTEWMBQGA1UECxMNR05VVExTIERFVkVMLjEXMBUGA1UEAxMOR05V
VExTIFRFU1QgQ0ExHTAbBgkqhkiG9w0BCQEWDm5tYXZAaGVsbHVnLmdyMB4XDTAx
MDgwNjE5NTEzNFoXDTAyMDgwNjE5NTEzNFowNjETMBEGA1UEAxMKTXIuIENsaWVu
dDEfMB0GCSqGSIb3DQEJARYQY2xpZW50QGhlbGxvLm9yZzCBnzANBgkqhkiG9w0B
AQEFAAOBjQAwgYkCgYEA5YqWJbqYbUo0AuiAQVChtwmtsOxDvOyrNdN8YloIAh5u
+OTQK01qTIkZdKMX9K75+H3ijHFWnEg9Wx7lIs7lOdZ1zTA2xOAlvHTBzmRwSNTW
p5Ri1IBKv67kXeXzCudsVIRHKdCJ+XUWkkAnvkK2vq3iJ5NOluY47LG7kGlHsAkC
AwEAAaNtMGswGwYDVR0RBBQwEoEQY2xpZW50QGhlbGxvLm9yZzAMBgNVHRMBAf8E
AjAAMB8GA1UdIwQYMBaAFISQ6A028HLpvQWliDnXEcZaVkW8MB0GA1UdJQQWMBQG
CCsGAQUFBwMCBggrBgEFBQcDBDANBgkqhkiG9w0BAQQFAAOBgQAstB4Yz84SYaYc
g0xK30/YWItUlo4G1oC7DYIVgcji6+vOHIvamJBkW4gLpx+Tx4HDaZ7Z5dQ80rZH
cXpGWV04rI+fIjmNc+VzrVm856isLYpUYJDqPYYY1vQyel3AjS9ZHMpxHX1Sf3Uk
rWYksx1mrsFIgV3pjwv52I+U5pPG+g==
-----END CERTIFICATE-----
