Certificate:
    Data:
        Version: 3 (0x2)
        Serial Number: 4 (0x4)
        Signature Algorithm: md5WithRSAEncryption
        Issuer: C=GR, ST=Attiki, L=Athina, O=GNUTLS, OU=GNUTLS dev., CN=GNUTLS TEST CA/Email=gnutls-dev@gnupg.org
        Validity
            Not Before: Jan 26 21:05:06 2002 GMT
            Not After : Jan 26 21:05:06 2003 GMT
        Subject: CN=Mr. User RSA/Email=koko@hello.org
        Subject Public Key Info:
            Public Key Algorithm: rsaEncryption
            RSA Public Key: (1024 bit)
                Modulus (1024 bit):
                    00:ca:8a:f8:cb:a5:e9:a5:d8:62:0d:b0:08:a6:0b:
                    ac:70:4f:18:f8:e2:62:dc:c5:2f:ae:eb:dc:85:5c:
                    58:36:67:f0:1e:a5:45:3e:22:f7:ea:54:e7:91:56:
                    08:35:58:7a:e1:f8:36:4b:ba:80:ba:93:09:fb:6b:
                    66:9f:51:3c:f2:b6:b2:13:2a:78:be:27:5e:04:35:
                    af:d9:70:5d:8c:ae:14:8c:f1:66:75:35:6a:e6:bd:
                    49:6d:8e:46:c9:40:8c:32:54:fb:88:c1:e4:47:d4:
                    40:aa:48:5c:55:a8:14:fc:47:06:19:db:b1:73:4c:
                    bf:16:17:52:67:95:29:4a:b9
                Exponent: 65537 (0x10001)
        X509v3 extensions:
            X509v3 Subject Alternative Name: 
                email:koko@hello.org
            X509v3 Basic Constraints: critical
                CA:FALSE
            X509v3 Authority Key Identifier: 
                keyid:EF:EE:94:AB:C8:CA:57:7F:53:13:DB:76:DC:1A:95:00:93:BA:F3:C9

            X509v3 Extended Key Usage: 
                TLS Web Client Authentication, E-mail Protection
    Signature Algorithm: md5WithRSAEncryption
        73:67:d5:4d:32:1f:d3:f2:de:2d:27:2d:41:1f:f2:ed:db:cf:
        ec:c3:96:27:6b:ee:4e:e6:db:ec:34:1b:69:4f:e3:7e:14:c7:
        bc:47:fb:5b:6b:ba:5f:5b:11:c5:ed:be:e4:f0:b9:8b:ed:65:
        1b:f1:18:4d:67:15:a4:92:14:07:f6:67:e5:ed:14:5d:04:b0:
        f2:b3:22:14:ba:2f:5b:d8:df:5c:90:6c:0d:56:a6:48:e3:bc:
        09:56:f5:4e:d2:d0:46:a4:88:58:63:b2:97:04:00:d9:d9:32:
        31:f6:cb:11:57:13:d8:e1:a5:fb:0e:bc:33:00:9b:33:67:ef:
        70:ed
-----BEGIN CERTIFICATE-----
MIICrDCCAhWgAwIBAgIBBDANBgkqhkiG9w0BAQQFADCBlDELMAkGA1UEBhMCR1Ix
DzANBgNVBAgTBkF0dGlraTEPMA0GA1UEBxMGQXRoaW5hMQ8wDQYDVQQKEwZHTlVU
TFMxFDASBgNVBAsTC0dOVVRMUyBkZXYuMRcwFQYDVQQDEw5HTlVUTFMgVEVTVCBD
QTEjMCEGCSqGSIb3DQEJARYUZ251dGxzLWRldkBnbnVwZy5vcmcwHhcNMDIwMTI2
MjEwNTA2WhcNMDMwMTI2MjEwNTA2WjA2MRUwEwYDVQQDEwxNci4gVXNlciBSU0Ex
HTAbBgkqhkiG9w0BCQEWDmtva29AaGVsbG8ub3JnMIGfMA0GCSqGSIb3DQEBAQUA
A4GNADCBiQKBgQDKivjLpeml2GINsAimC6xwTxj44mLcxS+u69yFXFg2Z/AepUU+
IvfqVOeRVgg1WHrh+DZLuoC6kwn7a2afUTzytrITKni+J14ENa/ZcF2MrhSM8WZ1
NWrmvUltjkbJQIwyVPuIweRH1ECqSFxVqBT8RwYZ27FzTL8WF1JnlSlKuQIDAQAB
o2swaTAZBgNVHREEEjAQgQ5rb2tvQGhlbGxvLm9yZzAMBgNVHRMBAf8EAjAAMB8G
A1UdIwQYMBaAFO/ulKvIyld/UxPbdtwalQCTuvPJMB0GA1UdJQQWMBQGCCsGAQUF
BwMCBggrBgEFBQcDBDANBgkqhkiG9w0BAQQFAAOBgQBzZ9VNMh/T8t4tJy1BH/Lt
28/sw5Yna+5O5tvsNBtpT+N+FMe8R/tba7pfWxHF7b7k8LmL7WUb8RhNZxWkkhQH
9mfl7RRdBLDysyIUui9b2N9ckGwNVqZI47wJVvVO0tBGpIhYY7KXBADZ2TIx9ssR
VxPY4aX7DrwzAJszZ+9w7Q==
-----END CERTIFICATE-----
