[ This should not be validated. The signature on the end
  certificate is invalid ]

Certificate:
    Data:
        Version: 3 (0x2)
        Serial Number: 5 (0x5)
        Signature Algorithm: sha1WithRSAEncryption
        Issuer: C=US, O=U.S. Government, OU=Dod, OU=Testing, CN=CA1-CP.01.03
        Validity
            Not Before: Jan  1 12:01:00 1998 GMT
            Not After : Jan  1 12:01:00 2048 GMT
        Subject: C=US, O=U.S. Government, OU=DoD, OU=Testing, CN=User1-CP.01.03
        Subject Public Key Info:
            Public Key Algorithm: rsaEncryption
            RSA Public Key: (1024 bit)
                Modulus (1024 bit):
                    00:d0:03:d6:f4:23:ff:fe:01:18:45:d6:d5:0e:c7:
                    5f:f0:14:c8:52:45:c8:7a:18:72:f8:39:cb:8b:bf:
                    f1:28:fa:a2:4a:e2:5e:3d:e4:9e:70:4a:0e:22:4b:
                    a4:a7:dc:b0:ee:69:e4:c4:12:e5:0c:c0:73:e9:71:
                    12:b5:c3:f9:db:a2:c3:c9:66:eb:58:63:d1:2b:6c:
                    47:38:43:16:c6:82:d6:06:a4:8f:35:3b:d1:1d:93:
                    9b:3f:dd:8d:49:ea:3b:76:9a:db:02:02:73:83:55:
                    01:79:c8:30:cb:07:fd:be:97:5c:56:69:0b:4f:c2:
                    df:64:cf:4e:ff:5a:6b:d9:ab
                Exponent: 65537 (0x10001)
        X509v3 extensions:
            X509v3 Key Usage: critical
                Digital Signature, Non Repudiation, Key Encipherment
            X509v3 Certificate Policies: 
                Policy: 2.16.840.1.101.3.1.48.1

            X509v3 Subject Key Identifier: 
                3F:0D:B0:96:D8:91:AB:3E
            X509v3 Authority Key Identifier: 
                keyid:CF:4F:16:84:CA:46:D8:9B

    Signature Algorithm: sha1WithRSAEncryption
        96:7e:36:89:1d:de:1f:26:b3:17:c0:91:8d:2f:49:9d:ab:3f:
        db:a3:1a:06:d8:d4:c8:3b:5c:4a:34:d5:0d:61:65:71:cc:2b:
        43:b4:e0:b7:38:e4:36:6f:5f:0a:68:12:ca:fa:f2:0e:75:18:
        18:c0:e8:12:3c:18:34:b2:20:b4:20:24:54:81:01:4e:62:6f:
        96:a8:8f:1c:7f:ad:57:9a:09:bc:86:af:f8:59:fc:a2:41:e9:
        ba:e2:b8:e2:e9:83:71:d2:a2:15:69:4e:cb:1a:d2:87:1c:d5:
        dc:17:b3:fd:e1:e4:95:a3:d3:c3:f5:6c:56:1c:a1:f9:4a:ee:
        e7:33
-----BEGIN CERTIFICATE-----
MIIChjCCAe+gAwIBAgIBBTANBgkqhkiG9w0BAQUFADBeMQswCQYDVQQGEwJVUzEY
MBYGA1UEChMPVS5TLiBHb3Zlcm5tZW50MQwwCgYDVQQLEwNEb2QxEDAOBgNVBAsT
B1Rlc3RpbmcxFTATBgNVBAMTDENBMS1DUC4wMS4wMzAeFw05ODAxMDExMjAxMDBa
Fw00ODAxMDExMjAxMDBaMGAxCzAJBgNVBAYTAlVTMRgwFgYDVQQKEw9VLlMuIEdv
dmVybm1lbnQxDDAKBgNVBAsTA0RvRDEQMA4GA1UECxMHVGVzdGluZzEXMBUGA1UE
AxMOVXNlcjEtQ1AuMDEuMDMwgZ8wDQYJKoZIhvcNAQEBBQADgY0AMIGJAoGBANAD
1vQj//4BGEXW1Q7HX/AUyFJFyHoYcvg5y4u/8Sj6okriXj3knnBKDiJLpKfcsO5p
5MQS5QzAc+lxErXD+duiw8lm61hj0StsRzhDFsaC1gakjzU70R2Tmz/djUnqO3aa
2wICc4NVAXnIMMsH/b6XXFZpC0/C32TPTv9aa9mrAgMBAAGjUjBQMA4GA1UdDwEB
/wQEAwIF4DAWBgNVHSAEDzANMAsGCWCGSAFlAwEwATARBgNVHQ4ECgQIPw2wltiR
qz4wEwYDVR0jBAwwCoAIz08WhMpG2JswDQYJKoZIhvcNAQEFBQADgYEAln42iR3e
HyazF8CRjS9Jnas/26MaBtjUyDtcSjTVDWFlccwrQ7TgtzjkNm9fCmgSyvryDnUY
GMDoEjwYNLIgtCAkVIEBTmJvlqiPHH+tV5oJvIav+Fn8okHpuuK44umDcdKiFWlO
yxrShxzV3Bez/eHklaPTw/VsVhyh+Uru5zM=
-----END CERTIFICATE-----
Certificate:
    Data:
        Version: 3 (0x2)
        Serial Number: 4 (0x4)
        Signature Algorithm: sha1WithRSAEncryption
        Issuer: C=US, O=U.S. Government, OU=DoD, OU=Testing, CN=Trust Anchor
        Validity
            Not Before: Jan  1 12:01:00 1998 GMT
            Not After : Jan  1 12:01:00 2048 GMT
        Subject: C=US, O=U.S. Government, OU=Dod, OU=Testing, CN=CA1-CP.01.03
        Subject Public Key Info:
            Public Key Algorithm: rsaEncryption
            RSA Public Key: (1024 bit)
                Modulus (1024 bit):
                    00:b8:45:9d:11:f3:6b:00:f8:17:f2:ca:71:5e:a0:
                    80:c6:ed:ce:48:95:9f:07:a2:b1:2f:f8:ee:08:8f:
                    73:b2:ec:54:75:30:1e:27:a3:c8:43:10:13:c1:7f:
                    97:c2:ac:04:7f:f0:f5:71:09:98:d5:8f:61:ce:c2:
                    74:80:a9:44:20:c6:8e:96:3d:c9:a4:69:bb:b1:d7:
                    69:3c:90:ae:b2:78:aa:b7:6f:bb:b9:7c:be:ad:6f:
                    b7:8a:12:54:33:b3:3f:09:7b:8c:f8:ac:20:e4:23:
                    5d:2f:57:e5:f4:55:9e:48:a7:f1:2c:e3:6f:1d:c3:
                    62:a8:37:c7:b2:1a:6c:37:f9
                Exponent: 65537 (0x10001)
        X509v3 extensions:
            X509v3 Basic Constraints: critical
                CA:TRUE
            X509v3 Key Usage: critical
                Certificate Sign, CRL Sign
            X509v3 Certificate Policies: 
                Policy: 2.16.840.1.101.3.1.48.1

            X509v3 Subject Key Identifier: 
                CF:4F:16:84:CA:46:D8:9B
            X509v3 Authority Key Identifier: 
                keyid:AB:9A:EB:F9:C2:E7:54:8F

    Signature Algorithm: sha1WithRSAEncryption
        43:e8:aa:94:5b:db:bc:37:a3:3b:f9:be:44:21:e1:d9:4b:94:
        6a:ed:45:b8:00:4e:6e:43:ce:bb:64:ef:f7:24:d6:bd:34:96:
        0d:1c:a0:74:e2:d0:46:23:8b:b2:38:2b:75:73:dd:6c:3b:ad:
        54:68:e5:94:1a:13:37:c7:1d:cf:74:96:8c:2a:5a:9a:98:39:
        4c:18:a4:02:bc:66:34:46:0c:0d:0b:cb:ea:7d:a5:91:47:1e:
        b5:12:51:81:0e:d3:60:bb:c5:8f:df:92:c9:c2:97:7c:ce:42:
        51:70:32:09:f7:14:fd:0c:03:82:18:59:81:cf:7d:02:e0:d9:
        b4:97
-----BEGIN CERTIFICATE-----
MIIClTCCAf6gAwIBAgIBBDANBgkqhkiG9w0BAQUFADBeMQswCQYDVQQGEwJVUzEY
MBYGA1UEChMPVS5TLiBHb3Zlcm5tZW50MQwwCgYDVQQLEwNEb0QxEDAOBgNVBAsT
B1Rlc3RpbmcxFTATBgNVBAMTDFRydXN0IEFuY2hvcjAeFw05ODAxMDExMjAxMDBa
Fw00ODAxMDExMjAxMDBaMF4xCzAJBgNVBAYTAlVTMRgwFgYDVQQKEw9VLlMuIEdv
dmVybm1lbnQxDDAKBgNVBAsTA0RvZDEQMA4GA1UECxMHVGVzdGluZzEVMBMGA1UE
AxMMQ0ExLUNQLjAxLjAzMIGfMA0GCSqGSIb3DQEBAQUAA4GNADCBiQKBgQC4RZ0R
82sA+BfyynFeoIDG7c5IlZ8HorEv+O4Ij3Oy7FR1MB4no8hDEBPBf5fCrAR/8PVx
CZjVj2HOwnSAqUQgxo6WPcmkabux12k8kK6yeKq3b7u5fL6tb7eKElQzsz8Je4z4
rCDkI10vV+X0VZ5Ip/Es428dw2KoN8eyGmw3+QIDAQABo2MwYTAPBgNVHRMBAf8E
BTADAQH/MA4GA1UdDwEB/wQEAwIBBjAWBgNVHSAEDzANMAsGCWCGSAFlAwEwATAR
BgNVHQ4ECgQIz08WhMpG2JswEwYDVR0jBAwwCoAIq5rr+cLnVI8wDQYJKoZIhvcN
AQEFBQADgYEAQ+iqlFvbvDejO/m+RCHh2UuUau1FuABObkPOu2Tv9yTWvTSWDRyg
dOLQRiOLsjgrdXPdbDutVGjllBoTN8cdz3SWjCpampg5TBikArxmNEYMDQvL6n2l
kUcetRJRgQ7TYLvFj9+SycKXfM5CUXAyCfcU/QwDghhZgc99AuDZtJc=
-----END CERTIFICATE-----
Certificate:
    Data:
        Version: 3 (0x2)
        Serial Number: 99999 (0x1869f)
        Signature Algorithm: sha1WithRSAEncryption
        Issuer: C=US, O=U.S. Government, OU=DoD, OU=Testing, CN=Trust Anchor
        Validity
            Not Before: Jan  1 12:01:00 1999 GMT
            Not After : Jan  1 12:01:00 2048 GMT
        Subject: C=US, O=U.S. Government, OU=DoD, OU=Testing, CN=Trust Anchor
        Subject Public Key Info:
            Public Key Algorithm: rsaEncryption
            RSA Public Key: (1024 bit)
                Modulus (1024 bit):
                    00:d3:f3:b9:c1:33:b7:3f:a7:27:f6:41:1d:5c:9c:
                    79:9d:aa:d2:95:10:b7:84:ce:da:a3:e5:58:0c:3e:
                    4e:8b:56:bf:3e:aa:21:2d:50:13:fe:f3:19:2e:7a:
                    cb:11:cf:f3:d3:b8:5f:57:9f:9d:97:80:af:1d:95:
                    57:12:df:34:d4:bd:f3:ae:4d:e7:7c:a6:20:d4:04:
                    4e:da:63:61:3e:3d:2a:8d:37:cf:c5:3c:c9:f9:fa:
                    f0:39:48:04:78:bd:b0:dd:f5:24:46:33:a1:46:9f:
                    17:9f:04:bb:cf:37:94:0c:13:43:aa:90:ac:91:78:
                    1d:ba:f3:18:84:2a:82:2b:47
                Exponent: 65537 (0x10001)
        X509v3 extensions:
            X509v3 Subject Key Identifier: 
                AB:9A:EB:F9:C2:E7:54:8F
            X509v3 Basic Constraints: 
                CA:TRUE
            X509v3 Authority Key Identifier: 
                keyid:AB:9A:EB:F9:C2:E7:54:8F

    Signature Algorithm: sha1WithRSAEncryption
        16:56:0f:61:ac:87:8b:4f:eb:64:12:1b:c3:85:59:4a:68:e1:
        3b:a5:21:c1:59:2e:91:ac:68:fe:13:ff:63:6d:ee:55:d4:a0:
        82:4c:37:bc:16:8e:a9:26:61:fe:7f:46:fa:38:1f:13:5c:8a:
        6a:b7:12:47:98:72:b9:b5:56:80:ee:78:95:18:1a:f4:63:70:
        26:39:9b:19:20:84:8d:bb:62:5f:df:2c:a1:3d:fc:1b:d0:3a:
        bb:d8:cc:1b:36:12:a2:ab:ad:3e:e6:e1:52:b4:75:13:11:ec:
        27:95:a6:63:cf:d3:cc:f4:4e:d8:ba:b8:ad:ad:cc:1a:65:a7:
        5a:45
-----BEGIN CERTIFICATE-----
MIICbDCCAdWgAwIBAgIDAYafMA0GCSqGSIb3DQEBBQUAMF4xCzAJBgNVBAYTAlVT
MRgwFgYDVQQKEw9VLlMuIEdvdmVybm1lbnQxDDAKBgNVBAsTA0RvRDEQMA4GA1UE
CxMHVGVzdGluZzEVMBMGA1UEAxMMVHJ1c3QgQW5jaG9yMB4XDTk5MDEwMTEyMDEw
MFoXDTQ4MDEwMTEyMDEwMFowXjELMAkGA1UEBhMCVVMxGDAWBgNVBAoTD1UuUy4g
R292ZXJubWVudDEMMAoGA1UECxMDRG9EMRAwDgYDVQQLEwdUZXN0aW5nMRUwEwYD
VQQDEwxUcnVzdCBBbmNob3IwgZ8wDQYJKoZIhvcNAQEBBQADgY0AMIGJAoGBANPz
ucEztz+nJ/ZBHVyceZ2q0pUQt4TO2qPlWAw+TotWvz6qIS1QE/7zGS56yxHP89O4
X1efnZeArx2VVxLfNNS9865N53ymINQETtpjYT49Ko03z8U8yfn68DlIBHi9sN31
JEYzoUafF58Eu883lAwTQ6qQrJF4HbrzGIQqgitHAgMBAAGjODA2MBEGA1UdDgQK
BAirmuv5wudUjzAMBgNVHRMEBTADAQH/MBMGA1UdIwQMMAqACKua6/nC51SPMA0G
CSqGSIb3DQEBBQUAA4GBABZWD2Gsh4tP62QSG8OFWUpo4TulIcFZLpGsaP4T/2Nt
7lXUoIJMN7wWjqkmYf5/Rvo4HxNcimq3EkeYcrm1VoDueJUYGvRjcCY5mxkghI27
Yl/fLKE9/BvQOrvYzBs2EqKrrT7m4VK0dRMR7CeVpmPP08z0Tti6uK2tzBplp1pF
-----END CERTIFICATE-----
