[ This should not be validated. The signature on the end
  certificate is invalid ]

Certificate:
    Data:
        Version: 3 (0x2)
        Serial Number: 5 (0x5)
        Signature Algorithm: sha1WithRSAEncryption
        Issuer: C=US, O=U.S. Government, OU=Dod, OU=Testing, CN=CA1-CP.01.03
        Validity
            Not Before: Jan  1 12:01:00 1998 GMT
            Not After : Jan  1 12:01:00 2048 GMT
        Subject: C=US, O=U.S. Government, OU=DoD, OU=Testing, CN=User1-CP.01.03
        Subject Public Key Info:
            Public Key Algorithm: rsaEncryption
            RSA Public Key: (1024 bit)
                Modulus (1024 bit):
                    00:d0:03:d6:f4:23:ff:fe:01:18:45:d6:d5:0e:c7:
                    5f:f0:14:c8:52:45:c8:7a:18:72:f8:39:cb:8b:bf:
                    f1:28:fa:a2:4a:e2:5e:3d:e4:9e:70:4a:0e:22:4b:
                    a4:a7:dc:b0:ee:69:e4:c4:12:e5:0c:c0:73:e9:71:
                    12:b5:c3:f9:db:a2:c3:c9:66:eb:58:63:d1:2b:6c:
                    47:38:43:16:c6:82:d6:06:a4:8f:35:3b:d1:1d:93:
                    9b:3f:dd:8d:49:ea:3b:76:9a:db:02:02:73:83:55:
                    01:79:c8:30:cb:07:fd:be:97:5c:56:69:0b:4f:c2:
                    df:64:cf:4e:ff:5a:6b:d9:ab
                Exponent: 65537 (0x10001)
        X509v3 extensions:
            X509v3 Key Usage: critical
                Digital Signature, Non Repudiation, Key Encipherment
            X509v3 Certificate Policies: 
                Policy: 2.16.840.1.101.3.1.48.1

            X509v3 Subject Key Identifier: 
                3F:0D:B0:96:D8:91:AB:3E
            X509v3 Authority Key Identifier: 
                keyid:CF:4F:16:84:CA:46:D8:9B

    Signature Algorithm: sha1WithRSAEncryption
        96:7e:36:89:1d:de:1f:26:b3:17:c0:91:8d:2f:49:9d:ab:3f:
        db:a3:1a:06:d8:d4:c8:3b:5c:4a:34:d5:0d:61:65:71:cc:2b:
        43:b4:e0:b7:38:e4:36:6f:5f:0a:68:12:ca:fa:f2:0e:75:18:
        18:c0:e8:12:3c:18:34:b2:20:b4:20:24:54:81:01:4e:62:6f:
        96:a8:8f:1c:7f:ad:57:9a:09:bc:86:af:f8:59:fc:a2:41:e9:
        ba:e2:b8:e2:e9:83:71:d2:a2:15:69:4e:cb:1a:d2:87:1c:d5:
        dc:17:b3:fd:e1:e4:95:a3:d3:c3:f5:6c:56:1c:a1:f9:4a:ee:
        e7:33
-----BEGIN CERTIFICATE-----
MIIChjCCAe+gAwIBAgIBBTANBgkqhkiG9w0BAQUFADBeMQswCQYDVQQGEwJVUzEY
MBYGA1UEChMPVS5TLiBHb3Zlcm5tZW50MQwwCgYDVQQLEwNEb2QxEDAOBgNVBAsT
B1Rlc3RpbmcxFTATBgNVBAMTDENBMS1DUC4wMS4wMzAeFw05ODAxMDExMjAxMDBa
Fw00ODAxMDExMjAxMDBaMGAxCzAJBgNVBAYTAlVTMRgwFgYDVQQKEw9VLlMuIEdv
dmVybm1lbnQxDDAKBgNVBAsTA0RvRDEQMA4GA1UECxMHVGVzdGluZzEXMBUGA1UE
AxMOVXNlcjEtQ1AuMDEuMDMwgZ8wDQYJKoZIhvcNAQEBBQADgY0AMIGJAoGBANAD
1vQj//4BGEXW1Q7HX/AUyFJFyHoYcvg5y4u/8Sj6okriXj3knnBKDiJLpKfcsO5p
5MQS5QzAc+lxErXD+duiw8lm61hj0StsRzhDFsaC1gakjzU70R2Tmz/djUnqO3aa
2wICc4NVAXnIMMsH/b6XXFZpC0/C32TPTv9aa9mrAgMBAAGjUjBQMA4GA1UdDwEB
/wQEAwIF4DAWBgNVHSAEDzANMAsGCWCGSAFlAwEwATARBgNVHQ4ECgQIPw2wltiR
qz4wEwYDVR0jBAwwCoAIz08WhMpG2JswDQYJKoZIhvcNAQEFBQADgYEAln42iR3e
HyazF8CRjS9Jnas/26MaBtjUyDtcSjTVDWFlccwrQ7TgtzjkNm9fCmgSyvryDnUY
GMDoEjwYNLIgtCAkVIEBTmJvlqiPHH+tV5oJvIav+Fn8okHpuuK44umDcdKiFWlO
yxrShxzV3Bez/eHklaPTw/VsVhyh+Uru5zM=
-----END CERTIFICATE-----
Certificate:
    Data:
        Version: 3 (0x2)
        Serial Number: 4 (0x4)
        Signature Algorithm: sha1WithRSAEncryption
        Issuer: C=US, O=U.S. Government, OU=DoD, OU=Testing, CN=Trust Anchor
        Validity
            Not Before: Jan  1 12:01:00 1998 GMT
            Not After : Jan  1 12:01:00 2048 GMT
        Subject: C=US, O=U.S. Government, OU=Dod, OU=Testing, CN=CA1-CP.01.03
        Subject Public Key Info:
            Public Key Algorithm: rsaEncryption
            RSA Public Key: (1024 bit)
                Modulus (1024 bit):
                    00:b8:45:9d:11:f3:6b:00:f8:17:f2:ca:71:5e:a0:
                    80:c6:ed:ce:48:95:9f:07:a2:b1:2f:f8:ee:08:8f:
                    73:b2:ec:54:75:30:1e:27:a3:c8:43:10:13:c1:7f:
                    97:c2:ac:04:7f:f0:f5:71:09:98:d5:8f:61:ce:c2:
                    74:80:a9:44:20:c6:8e:96:3d:c9:a4:69:bb:b1:d7:
                    69:3c:90:ae:b2:78:aa:b7:6f:bb:b9:7c:be:ad:6f:
                    b7:8a:12:54:33:b3:3f:09:7b:8c:f8:ac:20:e4:23:
                    5d:2f:57:e5:f4:55:9e:48:a7:f1:2c:e3:6f:1d:c3:
                    62:a8:37:c7:b2:1a:6c:37:f9
                Exponent: 65537 (0x10001)
        X509v3 extensions:
            X509v3 Basic Constraints: critical
                CA:TRUE
            X509v3 Key Usage: critical
                Certificate Sign, CRL Sign
            X509v3 Certificate Policies: 
                Policy: 2.16.840.1.101.3.1.48.1

            X509v3 Subject Key Identifier: 
                CF:4F:16:84:CA:46:D8:9B
            X509v3 Authority Key Identifier: 
                keyid:AB:9A:EB:F9:C2:E7:54:8F

    Signature Algorithm: sha1WithRSAEncryption
        43:e8:aa:94:5b:db:bc:37:a3:3b:f9:be:44:21:e1:d9:4b:94:
        6a:ed:45:b8:00:4e:6e:43:ce:bb:64:ef:f7:24:d6:bd:34:96:
        0d:1c:a0:74:e2:d0:46:23:8b:b2:38:2b:75:73:dd:6c:3b:ad:
        54:68:e5:94:1a:13:37:c7:1d:cf:74:96:8c:2a:5a:9a:98:39:
        4c:18:a4:02:bc:66:34:46:0c:0d:0b:cb:ea:7d:a5:91:47:1e:
        b5:12:51:81:0e:d3:60:bb:c5:8f:df:92:c9:c2:97:7c:ce:42:
        51:70:32:09:f7:14:fd:0c:03:82:18:59:81:cf:7d:02:e0:d9:
        b4:97
-----BEGIN CERTIFICATE-----
MIIClTCCAf6gAwIBAgIBBDANBgkqhkiG9w0BAQUFADBeMQswCQYDVQQGEwJVUzEY
MBYGA1UEChMPVS5TLiBHb3Zlcm5tZW50MQwwCgYDVQQLEwNEb0QxEDAOBgNVBAsT
B1Rlc3RpbmcxFTATBgNVBAMTDFRydXN0IEFuY2hvcjAeFw05ODAxMDExMjAxMDBa
Fw00ODAxMDExMjAxMDBaMF4xCzAJBgNVBAYTAlVTMRgwFgYDVQQKEw9VLlMuIEdv
dmVybm1lbnQxDDAKBgNVBAsTA0RvZDEQMA4GA1UECxMHVGVzdGluZzEVMBMGA1UE
AxMMQ0ExLUNQLjAxLjAzMIGfMA0GCSqGSIb3DQEBAQUAA4GNADCBiQKBgQC4RZ0R
82sA+BfyynFeoIDG7c5IlZ8HorEv+O4Ij3Oy7FR1MB4no8hDEBPBf5fCrAR/8PVx
CZjVj2HOwnSAqUQgxo6WPcmkabux12k8kK6yeKq3b7u5fL6tb7eKElQzsz8Je4z4
rCDkI10vV+X0VZ5Ip/Es428dw2KoN8eyGmw3+QIDAQABo2MwYTAPBgNVHRMBAf8E
BTADAQH/MA4GA1UdDwEB/wQEAwIBBjAWBgNVHSAEDzANMAsGCWCGSAFlAwEwATAR
BgNVHQ4ECgQIz08WhMpG2JswEwYDVR0jBAwwCoAIq5rr+cLnVI8wDQYJKoZIhvcN
AQEFBQADgYEAQ+iqlFvbvDejO/m+RCHh2UuUau1FuABObkPOu2Tv9yTWvTSWDRyg
dOLQRiOLsjgrdXPdbDutVGjllBoTN8cdz3SWjCpampg5TBikArxmNEYMDQvL6n2l
kUcetRJRgQ7TYLvFj9+SycKXfM5CUXAyCfcU/QwDghhZgc99AuDZtJc=
-----END CERTIFICATE-----
