[ The end certificate has been revoked ]

Certificate:
    Data:
        Version: 3 (0x2)
        Serial Number: 42 (0x2a)
        Signature Algorithm: sha1WithRSAEncryption
        Issuer: C=US, O=U.S. Government, OU=Dod, OU=Testing, CN=CA1-CP.06.02
        Validity
            Not Before: Jan  1 12:01:00 1998 GMT
            Not After : Jan  1 12:01:00 2048 GMT
        Subject: C=US, O=U.S. Government, OU=DoD, OU=Testing, CN=User1-CP.06.02
        Subject Public Key Info:
            Public Key Algorithm: rsaEncryption
            RSA Public Key: (1024 bit)
                Modulus (1024 bit):
                    00:ae:03:f4:7f:09:c5:e2:2b:16:e3:a6:c7:47:12:
                    90:86:0d:4b:4a:7b:70:34:81:95:c7:39:ec:d6:b7:
                    fb:59:3b:94:90:fb:98:4f:59:3f:af:f8:ed:8b:03:
                    54:ad:9b:c1:ee:1a:4c:a0:93:5e:d3:e4:fe:41:90:
                    e9:bb:0b:b3:02:57:6f:25:b8:93:8f:9f:e4:b7:80:
                    62:85:e0:6e:66:57:8c:05:85:f8:12:88:97:cb:8a:
                    7a:db:2a:0b:71:e4:09:ea:a1:05:a6:35:00:65:2a:
                    79:fe:28:38:09:1a:90:43:fe:d6:36:05:ba:63:58:
                    b4:c6:81:fb:dc:7f:d2:77:01
                Exponent: 65537 (0x10001)
        X509v3 extensions:
            X509v3 Key Usage: critical
                Digital Signature, Non Repudiation, Key Encipherment
            X509v3 Certificate Policies: 
                Policy: 2.16.840.1.101.3.1.48.1

            X509v3 Subject Key Identifier: 
                0B:D3:22:24:D2:3B:D5:13
            X509v3 Authority Key Identifier: 
                keyid:68:7C:56:39:D1:EC:2D:B5

    Signature Algorithm: sha1WithRSAEncryption
        a3:f8:9b:98:8c:6d:7a:2b:72:8d:99:6c:ce:30:9c:fe:ce:f2:
        33:fd:2c:9c:be:fc:a5:8a:4c:39:9d:cf:d9:33:ca:91:88:76:
        4e:1e:3e:07:0f:09:a9:7d:74:f8:cf:f3:c0:50:63:e4:1c:3b:
        22:6c:c2:21:17:d2:dc:61:6e:2a:67:15:73:21:c1:e0:e6:4b:
        31:c4:19:b5:75:80:f0:63:99:f7:86:2f:5a:ae:53:04:83:65:
        56:d4:e1:42:db:ac:42:3d:79:28:1a:b6:4c:93:4d:15:4c:83:
        a4:17:6f:ca:8d:39:02:71:2c:45:8d:07:6c:84:2e:e9:98:4d:
        43:8d
-----BEGIN CERTIFICATE-----
MIIChjCCAe+gAwIBAgIBKjANBgkqhkiG9w0BAQUFADBeMQswCQYDVQQGEwJVUzEY
MBYGA1UEChMPVS5TLiBHb3Zlcm5tZW50MQwwCgYDVQQLEwNEb2QxEDAOBgNVBAsT
B1Rlc3RpbmcxFTATBgNVBAMTDENBMS1DUC4wNi4wMjAeFw05ODAxMDExMjAxMDBa
Fw00ODAxMDExMjAxMDBaMGAxCzAJBgNVBAYTAlVTMRgwFgYDVQQKEw9VLlMuIEdv
dmVybm1lbnQxDDAKBgNVBAsTA0RvRDEQMA4GA1UECxMHVGVzdGluZzEXMBUGA1UE
AxMOVXNlcjEtQ1AuMDYuMDIwgZ8wDQYJKoZIhvcNAQEBBQADgY0AMIGJAoGBAK4D
9H8JxeIrFuOmx0cSkIYNS0p7cDSBlcc57Na3+1k7lJD7mE9ZP6/47YsDVK2bwe4a
TKCTXtPk/kGQ6bsLswJXbyW4k4+f5LeAYoXgbmZXjAWF+BKIl8uKetsqC3HkCeqh
BaY1AGUqef4oOAkakEP+1jYFumNYtMaB+9x/0ncBAgMBAAGjUjBQMA4GA1UdDwEB
/wQEAwIF4DAWBgNVHSAEDzANMAsGCWCGSAFlAwEwATARBgNVHQ4ECgQIC9MiJNI7
1RMwEwYDVR0jBAwwCoAIaHxWOdHsLbUwDQYJKoZIhvcNAQEFBQADgYEAo/ibmIxt
eityjZlszjCc/s7yM/0snL78pYpMOZ3P2TPKkYh2Th4+Bw8JqX10+M/zwFBj5Bw7
ImzCIRfS3GFuKmcVcyHB4OZLMcQZtXWA8GOZ94YvWq5TBINlVtThQtusQj15KBq2
TJNNFUyDpBdvyo05AnEsRY0HbIQu6ZhNQ40=
-----END CERTIFICATE-----


Certificate:
    Data:
        Version: 3 (0x2)
        Serial Number: 41 (0x29)
        Signature Algorithm: sha1WithRSAEncryption
        Issuer: C=US, O=U.S. Government, OU=DoD, OU=Testing, CN=Trust Anchor
        Validity
            Not Before: Jan  1 12:01:00 1998 GMT
            Not After : Jan  1 12:01:00 2048 GMT
        Subject: C=US, O=U.S. Government, OU=Dod, OU=Testing, CN=CA1-CP.06.02
        Subject Public Key Info:
            Public Key Algorithm: rsaEncryption
            RSA Public Key: (1024 bit)
                Modulus (1024 bit):
                    00:bf:21:e8:d5:dc:39:9e:68:b5:bc:3b:03:1f:00:
                    6c:ab:e7:ef:0d:3b:13:35:0b:e5:01:62:c9:5b:39:
                    f5:a3:29:41:9d:86:55:fa:4f:11:5c:e4:03:89:54:
                    90:69:4b:f4:23:78:0f:91:5a:85:02:c6:7c:4a:6f:
                    d4:12:94:ea:c1:98:00:eb:72:71:b3:f3:35:74:fd:
                    cd:09:0c:b6:94:de:84:a0:b1:51:16:64:4d:12:7b:
                    10:55:5a:b2:9c:97:58:fb:c0:dd:11:bb:13:1e:02:
                    9d:f8:db:f6:28:ca:f0:70:79:ad:d5:7a:a2:64:99:
                    20:9c:ed:8d:93:8e:bb:96:11
                Exponent: 65537 (0x10001)
        X509v3 extensions:
            X509v3 Basic Constraints: critical
                CA:TRUE
            X509v3 Key Usage: critical
                Certificate Sign, CRL Sign
            X509v3 Certificate Policies: 
                Policy: 2.16.840.1.101.3.1.48.1

            X509v3 Subject Key Identifier: 
                68:7C:56:39:D1:EC:2D:B5
            X509v3 Authority Key Identifier: 
                keyid:AB:9A:EB:F9:C2:E7:54:8F

    Signature Algorithm: sha1WithRSAEncryption
        bb:37:aa:fe:5a:a9:d2:ab:3a:da:4a:ca:e8:40:3c:d5:28:a5:
        87:2e:36:97:f2:a6:ca:71:37:99:5b:bd:18:f0:60:41:2d:01:
        50:38:bb:fa:b4:10:fa:6d:14:c5:81:25:ce:3d:92:34:ee:09:
        e5:a0:58:78:2f:7c:95:52:45:08:75:fb:40:4f:32:54:ea:0f:
        05:07:79:ac:0f:ab:af:3e:07:0f:d4:28:3f:b8:25:c5:3a:8b:
        53:a4:dc:f5:51:5d:fa:26:85:a6:ab:15:b5:28:76:6f:11:f6:
        06:d5:01:d8:04:60:79:b4:e4:95:a3:65:e5:53:db:bb:4f:b2:
        73:62
-----BEGIN CERTIFICATE-----
MIIClTCCAf6gAwIBAgIBKTANBgkqhkiG9w0BAQUFADBeMQswCQYDVQQGEwJVUzEY
MBYGA1UEChMPVS5TLiBHb3Zlcm5tZW50MQwwCgYDVQQLEwNEb0QxEDAOBgNVBAsT
B1Rlc3RpbmcxFTATBgNVBAMTDFRydXN0IEFuY2hvcjAeFw05ODAxMDExMjAxMDBa
Fw00ODAxMDExMjAxMDBaMF4xCzAJBgNVBAYTAlVTMRgwFgYDVQQKEw9VLlMuIEdv
dmVybm1lbnQxDDAKBgNVBAsTA0RvZDEQMA4GA1UECxMHVGVzdGluZzEVMBMGA1UE
AxMMQ0ExLUNQLjA2LjAyMIGfMA0GCSqGSIb3DQEBAQUAA4GNADCBiQKBgQC/IejV
3DmeaLW8OwMfAGyr5+8NOxM1C+UBYslbOfWjKUGdhlX6TxFc5AOJVJBpS/QjeA+R
WoUCxnxKb9QSlOrBmADrcnGz8zV0/c0JDLaU3oSgsVEWZE0SexBVWrKcl1j7wN0R
uxMeAp342/YoyvBwea3VeqJkmSCc7Y2TjruWEQIDAQABo2MwYTAPBgNVHRMBAf8E
BTADAQH/MA4GA1UdDwEB/wQEAwIBBjAWBgNVHSAEDzANMAsGCWCGSAFlAwEwATAR
BgNVHQ4ECgQIaHxWOdHsLbUwEwYDVR0jBAwwCoAIq5rr+cLnVI8wDQYJKoZIhvcN
AQEFBQADgYEAuzeq/lqp0qs62krK6EA81Silhy42l/KmynE3mVu9GPBgQS0BUDi7
+rQQ+m0UxYElzj2SNO4J5aBYeC98lVJFCHX7QE8yVOoPBQd5rA+rrz4HD9QoP7gl
xTqLU6Tc9VFd+iaFpqsVtSh2bxH2BtUB2ARgebTklaNl5VPbu0+yc2I=
-----END CERTIFICATE-----

Certificate Revocation List (CRL):
        Version 2 (0x1)
        Signature Algorithm: sha1WithRSAEncryption
        Issuer: /C=US/O=U.S. Government/OU=Dod/OU=Testing/CN=CA1-CP.06.02
        Last Update: Jan  1 12:01:00 1999 GMT
        Next Update: Jan  1 12:01:00 2048 GMT
        CRL extensions:
            X509v3 CRL Number: 
                1
            X509v3 Authority Key Identifier: 
                keyid:68:7C:56:39:D1:EC:2D:B5

Revoked Certificates:
    Serial Number: 2A
        Revocation Date: Jan  1 12:00:00 1999 GMT
            X509v3 CRL Reason Code: 
                Key Compromise
    Signature Algorithm: sha1WithRSAEncryption
        60:66:80:cd:5a:14:76:54:99:de:e1:8a:89:13:df:1c:01:48:
        a0:a4:fb:f6:13:4e:be:d3:b1:68:60:34:68:87:a4:f4:ec:a9:
        0e:b0:ea:60:08:7f:b3:68:ec:5d:28:5e:2f:4a:6b:fe:ff:56:
        44:81:ef:b4:2b:7b:ca:d5:c3:c5:5c:a7:e0:dc:63:a5:fb:fb:
        06:40:0c:32:27:1c:75:4c:75:38:7d:55:12:54:d1:92:69:ad:
        31:ee:d1:3b:35:1e:1d:41:b3:5c:93:4f:7b:1d:41:73:d0:6f:
        48:28:47:d7:c6:d6:61:c9:32:39:97:58:24:18:dc:b4:22:89:
        16:0c
-----BEGIN X509 CRL-----
MIIBbzCB2QIBATANBgkqhkiG9w0BAQUFADBeMQswCQYDVQQGEwJVUzEYMBYGA1UE
ChMPVS5TLiBHb3Zlcm5tZW50MQwwCgYDVQQLEwNEb2QxEDAOBgNVBAsTB1Rlc3Rp
bmcxFTATBgNVBAMTDENBMS1DUC4wNi4wMhcNOTkwMTAxMTIwMTAwWhcNNDgwMTAx
MTIwMTAwWjAiMCACASoXDTk5MDEwMTEyMDAwMFowDDAKBgNVHRUEAwoBAaAjMCEw
CgYDVR0UBAMCAQEwEwYDVR0jBAwwCoAIaHxWOdHsLbUwDQYJKoZIhvcNAQEFBQAD
gYEAYGaAzVoUdlSZ3uGKiRPfHAFIoKT79hNOvtOxaGA0aIek9OypDrDqYAh/s2js
XSheL0pr/v9WRIHvtCt7ytXDxVyn4Nxjpfv7BkAMMiccdUx1OH1VElTRkmmtMe7R
OzUeHUGzXJNPex1Bc9BvSChH18bWYckyOZdYJBjctCKJFgw=
-----END X509 CRL-----
Certificate:
    Data:
        Version: 3 (0x2)
        Serial Number: 99999 (0x1869f)
        Signature Algorithm: sha1WithRSAEncryption
        Issuer: C=US, O=U.S. Government, OU=DoD, OU=Testing, CN=Trust Anchor
        Validity
            Not Before: Jan  1 12:01:00 1999 GMT
            Not After : Jan  1 12:01:00 2048 GMT
        Subject: C=US, O=U.S. Government, OU=DoD, OU=Testing, CN=Trust Anchor
        Subject Public Key Info:
            Public Key Algorithm: rsaEncryption
            RSA Public Key: (1024 bit)
                Modulus (1024 bit):
                    00:d3:f3:b9:c1:33:b7:3f:a7:27:f6:41:1d:5c:9c:
                    79:9d:aa:d2:95:10:b7:84:ce:da:a3:e5:58:0c:3e:
                    4e:8b:56:bf:3e:aa:21:2d:50:13:fe:f3:19:2e:7a:
                    cb:11:cf:f3:d3:b8:5f:57:9f:9d:97:80:af:1d:95:
                    57:12:df:34:d4:bd:f3:ae:4d:e7:7c:a6:20:d4:04:
                    4e:da:63:61:3e:3d:2a:8d:37:cf:c5:3c:c9:f9:fa:
                    f0:39:48:04:78:bd:b0:dd:f5:24:46:33:a1:46:9f:
                    17:9f:04:bb:cf:37:94:0c:13:43:aa:90:ac:91:78:
                    1d:ba:f3:18:84:2a:82:2b:47
                Exponent: 65537 (0x10001)
        X509v3 extensions:
            X509v3 Subject Key Identifier: 
                AB:9A:EB:F9:C2:E7:54:8F
            X509v3 Basic Constraints: 
                CA:TRUE
            X509v3 Authority Key Identifier: 
                keyid:AB:9A:EB:F9:C2:E7:54:8F

    Signature Algorithm: sha1WithRSAEncryption
        16:56:0f:61:ac:87:8b:4f:eb:64:12:1b:c3:85:59:4a:68:e1:
        3b:a5:21:c1:59:2e:91:ac:68:fe:13:ff:63:6d:ee:55:d4:a0:
        82:4c:37:bc:16:8e:a9:26:61:fe:7f:46:fa:38:1f:13:5c:8a:
        6a:b7:12:47:98:72:b9:b5:56:80:ee:78:95:18:1a:f4:63:70:
        26:39:9b:19:20:84:8d:bb:62:5f:df:2c:a1:3d:fc:1b:d0:3a:
        bb:d8:cc:1b:36:12:a2:ab:ad:3e:e6:e1:52:b4:75:13:11:ec:
        27:95:a6:63:cf:d3:cc:f4:4e:d8:ba:b8:ad:ad:cc:1a:65:a7:
        5a:45
-----BEGIN CERTIFICATE-----
MIICbDCCAdWgAwIBAgIDAYafMA0GCSqGSIb3DQEBBQUAMF4xCzAJBgNVBAYTAlVT
MRgwFgYDVQQKEw9VLlMuIEdvdmVybm1lbnQxDDAKBgNVBAsTA0RvRDEQMA4GA1UE
CxMHVGVzdGluZzEVMBMGA1UEAxMMVHJ1c3QgQW5jaG9yMB4XDTk5MDEwMTEyMDEw
MFoXDTQ4MDEwMTEyMDEwMFowXjELMAkGA1UEBhMCVVMxGDAWBgNVBAoTD1UuUy4g
R292ZXJubWVudDEMMAoGA1UECxMDRG9EMRAwDgYDVQQLEwdUZXN0aW5nMRUwEwYD
VQQDEwxUcnVzdCBBbmNob3IwgZ8wDQYJKoZIhvcNAQEBBQADgY0AMIGJAoGBANPz
ucEztz+nJ/ZBHVyceZ2q0pUQt4TO2qPlWAw+TotWvz6qIS1QE/7zGS56yxHP89O4
X1efnZeArx2VVxLfNNS9865N53ymINQETtpjYT49Ko03z8U8yfn68DlIBHi9sN31
JEYzoUafF58Eu883lAwTQ6qQrJF4HbrzGIQqgitHAgMBAAGjODA2MBEGA1UdDgQK
BAirmuv5wudUjzAMBgNVHRMEBTADAQH/MBMGA1UdIwQMMAqACKua6/nC51SPMA0G
CSqGSIb3DQEBBQUAA4GBABZWD2Gsh4tP62QSG8OFWUpo4TulIcFZLpGsaP4T/2Nt
7lXUoIJMN7wWjqkmYf5/Rvo4HxNcimq3EkeYcrm1VoDueJUYGvRjcCY5mxkghI27
Yl/fLKE9/BvQOrvYzBs2EqKrrT7m4VK0dRMR7CeVpmPP08z0Tti6uK2tzBplp1pF
-----END CERTIFICATE-----
