[ This should be successfully validated ]

Certificate:
    Data:
        Version: 3 (0x2)
        Serial Number: 1 (0x1)
        Signature Algorithm: sha1WithRSAEncryption
        Issuer: C=US, O=U.S. Government, OU=DoD, OU=Testing, CN=Trust Anchor
        Validity
            Not Before: Jan  1 12:01:00 1998 GMT
            Not After : Jan  1 12:01:00 2048 GMT
        Subject: C=US, O=U.S. Government, OU=DoD, OU=Testing, CN=User1-CP.01.01
        Subject Public Key Info:
            Public Key Algorithm: rsaEncryption
            RSA Public Key: (1024 bit)
                Modulus (1024 bit):
                    00:c6:34:ec:6f:0c:e0:59:0e:bc:5f:ba:2e:93:bb:
                    04:a7:03:b9:70:8a:b9:d7:e5:d7:e6:ca:4a:8c:23:
                    d8:60:b3:6b:cb:88:88:c7:d8:48:7e:64:f9:f6:1b:
                    e3:79:46:41:e4:61:f7:25:47:71:f3:50:94:4e:f2:
                    7c:6a:37:b6:0c:46:bf:9c:96:a5:e2:af:0c:ca:8b:
                    f0:8c:ba:43:4a:08:8e:6a:87:f3:46:4e:cf:6d:5d:
                    52:47:ab:99:c7:24:cd:31:0e:7d:ef:d1:d9:f3:69:
                    24:fb:fc:33:6e:29:ab:6f:52:75:80:2a:bb:e0:a9:
                    2c:31:c5:b7:0b:3d:3b:ea:b5
                Exponent: 65537 (0x10001)
        X509v3 extensions:
            X509v3 Key Usage: critical
                Digital Signature, Non Repudiation, Key Encipherment
            X509v3 Certificate Policies: 
                Policy: 2.16.840.1.101.3.1.48.1

            X509v3 Subject Key Identifier: 
                AC:DB:FC:F1:BC:05:2E:D2
            X509v3 Authority Key Identifier: 
                keyid:AB:9A:EB:F9:C2:E7:54:8F

    Signature Algorithm: sha1WithRSAEncryption
        2b:88:4f:82:85:ad:65:b1:df:ea:a5:9f:45:f9:ab:3e:bc:fd:
        84:31:f5:eb:8e:0d:ac:9a:29:d9:8e:cc:5f:3b:93:b6:9a:35:
        ce:9e:0d:08:6e:3e:8a:2d:02:48:e7:ef:86:e8:1c:f3:23:a6:
        ab:72:3a:a2:58:04:d1:5d:7a:56:d0:b9:6e:bd:bc:f7:65:07:
        61:9e:79:43:8a:10:f4:15:a8:b9:55:65:3b:26:3d:ae:88:0e:
        07:5e:b4:06:7b:2a:04:42:c5:85:3d:16:7f:a9:a7:6e:c7:43:
        1b:e0:41:e5:f1:72:78:ae:b5:69:80:d6:57:ce:24:4b:b7:12:
        5f:9c
-----BEGIN CERTIFICATE-----
MIIChjCCAe+gAwIBAgIBATANBgkqhkiG9w0BAQUFADBeMQswCQYDVQQGEwJVUzEY
MBYGA1UEChMPVS5TLiBHb3Zlcm5tZW50MQwwCgYDVQQLEwNEb0QxEDAOBgNVBAsT
B1Rlc3RpbmcxFTATBgNVBAMTDFRydXN0IEFuY2hvcjAeFw05ODAxMDExMjAxMDBa
Fw00ODAxMDExMjAxMDBaMGAxCzAJBgNVBAYTAlVTMRgwFgYDVQQKEw9VLlMuIEdv
dmVybm1lbnQxDDAKBgNVBAsTA0RvRDEQMA4GA1UECxMHVGVzdGluZzEXMBUGA1UE
AxMOVXNlcjEtQ1AuMDEuMDEwgZ8wDQYJKoZIhvcNAQEBBQADgY0AMIGJAoGBAMY0
7G8M4FkOvF+6LpO7BKcDuXCKudfl1+bKSowj2GCza8uIiMfYSH5k+fYb43lGQeRh
9yVHcfNQlE7yfGo3tgxGv5yWpeKvDMqL8Iy6Q0oIjmqH80ZOz21dUkermcckzTEO
fe/R2fNpJPv8M24pq29SdYAqu+CpLDHFtws9O+q1AgMBAAGjUjBQMA4GA1UdDwEB
/wQEAwIF4DAWBgNVHSAEDzANMAsGCWCGSAFlAwEwATARBgNVHQ4ECgQIrNv88bwF
LtIwEwYDVR0jBAwwCoAIq5rr+cLnVI8wDQYJKoZIhvcNAQEFBQADgYEAK4hPgoWt
ZbHf6qWfRfmrPrz9hDH1644NrJop2Y7MXzuTtpo1zp4NCG4+ii0CSOfvhugc8yOm
q3I6olgE0V16VtC5br2892UHYZ55Q4oQ9BWouVVlOyY9rogOB160BnsqBELFhT0W
f6mnbsdDG+BB5fFyeK61aYDWV84kS7cSX5w=
-----END CERTIFICATE-----
