[ The end certificate is expired. This should be validated (we don't check
expiration in the validation functions. ]

Certificate:
    Data:
        Version: 3 (0x2)
        Serial Number: 20 (0x14)
        Signature Algorithm: sha1WithRSAEncryption
        Issuer: C=US, O=U.S. Government, OU=Dod, OU=Testing, CN=CA1-CP.03.02
        Validity
            Not Before: Jan  1 12:01:00 1998 GMT
            Not After : Jan  1 12:01:00 2000 GMT
        Subject: C=US, O=U.S. Government, OU=DoD, OU=Testing, CN=User1-CP.03.02
        Subject Public Key Info:
            Public Key Algorithm: rsaEncryption
            RSA Public Key: (1024 bit)
                Modulus (1024 bit):
                    00:c2:4c:89:6f:86:e1:b8:28:45:a6:33:d8:e5:2e:
                    ff:e3:d0:ff:2a:78:26:01:4e:07:75:5e:81:fe:7f:
                    bc:8a:c5:e2:0b:27:a1:0c:4e:08:2b:0e:e4:94:cb:
                    ad:b4:b9:7e:2d:c2:3a:3b:cc:e7:0f:7f:49:9a:4d:
                    1e:d4:9f:c9:66:fd:69:f9:b1:e0:37:6b:4f:56:cd:
                    8e:66:bb:23:a3:c2:89:dc:b1:33:35:f8:89:32:de:
                    68:c4:67:a8:19:38:03:ef:f4:59:fd:be:e1:5c:c2:
                    aa:bf:1a:56:22:22:43:bb:b6:25:f6:62:4d:0e:1d:
                    67:10:e8:51:6e:86:f2:5a:db
                Exponent: 65537 (0x10001)
        X509v3 extensions:
            X509v3 Key Usage: critical
                Digital Signature, Non Repudiation, Key Encipherment
            X509v3 Certificate Policies: 
                Policy: 2.16.840.1.101.3.1.48.1

            X509v3 Subject Key Identifier: 
                12:39:F2:D8:6C:C5:5C:64
            X509v3 Authority Key Identifier: 
                keyid:F7:B9:C9:0A:AA:BA:FA:42

    Signature Algorithm: sha1WithRSAEncryption
        27:0d:d3:dd:a2:f7:a5:86:d9:86:cc:20:b2:13:af:27:d6:35:
        aa:fe:b9:47:aa:c2:95:2c:41:e6:5a:81:c3:af:90:92:2e:19:
        a5:6e:7b:34:af:0b:c1:a1:92:d3:75:f3:0d:43:da:0e:2e:3f:
        f5:18:46:08:7a:4f:db:87:c8:b2:44:b8:9f:88:cd:66:02:a9:
        1a:db:7a:54:45:68:ad:41:fb:70:e2:cd:0b:0d:9c:bb:03:25:
        29:b9:32:66:73:5d:c7:62:6a:4c:c3:25:1f:33:49:dd:c9:b2:
        69:7d:c5:ef:42:18:d0:e6:5b:c0:22:9d:52:8f:ee:31:50:ba:
        86:cb
-----BEGIN CERTIFICATE-----
MIIChjCCAe+gAwIBAgIBFDANBgkqhkiG9w0BAQUFADBeMQswCQYDVQQGEwJVUzEY
MBYGA1UEChMPVS5TLiBHb3Zlcm5tZW50MQwwCgYDVQQLEwNEb2QxEDAOBgNVBAsT
B1Rlc3RpbmcxFTATBgNVBAMTDENBMS1DUC4wMy4wMjAeFw05ODAxMDExMjAxMDBa
Fw0wMDAxMDExMjAxMDBaMGAxCzAJBgNVBAYTAlVTMRgwFgYDVQQKEw9VLlMuIEdv
dmVybm1lbnQxDDAKBgNVBAsTA0RvRDEQMA4GA1UECxMHVGVzdGluZzEXMBUGA1UE
AxMOVXNlcjEtQ1AuMDMuMDIwgZ8wDQYJKoZIhvcNAQEBBQADgY0AMIGJAoGBAMJM
iW+G4bgoRaYz2OUu/+PQ/yp4JgFOB3Vegf5/vIrF4gsnoQxOCCsO5JTLrbS5fi3C
OjvM5w9/SZpNHtSfyWb9afmx4DdrT1bNjma7I6PCidyxMzX4iTLeaMRnqBk4A+/0
Wf2+4VzCqr8aViIiQ7u2JfZiTQ4dZxDoUW6G8lrbAgMBAAGjUjBQMA4GA1UdDwEB
/wQEAwIF4DAWBgNVHSAEDzANMAsGCWCGSAFlAwEwATARBgNVHQ4ECgQIEjny2GzF
XGQwEwYDVR0jBAwwCoAI97nJCqq6+kIwDQYJKoZIhvcNAQEFBQADgYEAJw3T3aL3
pYbZhswgshOvJ9Y1qv65R6rClSxB5lqBw6+Qki4ZpW57NK8LwaGS03XzDUPaDi4/
9RhGCHpP24fIskS4n4jNZgKpGtt6VEVorUH7cOLNCw2cuwMlKbkyZnNdx2JqTMMl
HzNJ3cmyaX3F70IY0OZbwCKdUo/uMVC6hss=
-----END CERTIFICATE-----
Certificate:
    Data:
        Version: 3 (0x2)
        Serial Number: 19 (0x13)
        Signature Algorithm: sha1WithRSAEncryption
        Issuer: C=US, O=U.S. Government, OU=DoD, OU=Testing, CN=Trust Anchor
        Validity
            Not Before: Jan  1 12:01:00 1998 GMT
            Not After : Jan  1 12:01:00 2048 GMT
        Subject: C=US, O=U.S. Government, OU=Dod, OU=Testing, CN=CA1-CP.03.02
        Subject Public Key Info:
            Public Key Algorithm: rsaEncryption
            RSA Public Key: (1024 bit)
                Modulus (1024 bit):
                    00:b8:01:b3:fc:80:35:14:70:86:bc:c3:8a:44:b0:
                    68:1b:60:7d:ac:cf:4f:10:31:45:dd:e3:1c:31:eb:
                    dd:62:f5:00:9c:c9:64:a8:bd:03:b8:26:8c:de:6f:
                    d2:70:b7:23:76:f9:fd:d3:f8:9a:99:2f:f8:30:50:
                    7b:8b:3b:62:04:5e:9c:c4:d8:2f:05:cd:08:3a:31:
                    af:93:89:2a:e5:bc:62:5f:79:c4:e5:4a:8a:05:98:
                    4b:43:dd:78:7a:23:a3:79:3c:cd:5f:a7:2c:98:da:
                    c3:8e:84:04:4d:e5:2e:aa:47:d0:4e:bb:19:01:02:
                    aa:c0:4f:47:e0:a8:3d:93:b3
                Exponent: 65537 (0x10001)
        X509v3 extensions:
            X509v3 Basic Constraints: critical
                CA:TRUE
            X509v3 Key Usage: critical
                Certificate Sign, CRL Sign
            X509v3 Certificate Policies: 
                Policy: 2.16.840.1.101.3.1.48.1

            X509v3 Subject Key Identifier: 
                F7:B9:C9:0A:AA:BA:FA:42
            X509v3 Authority Key Identifier: 
                keyid:AB:9A:EB:F9:C2:E7:54:8F

    Signature Algorithm: sha1WithRSAEncryption
        5b:0a:5f:87:da:0e:3a:f8:fd:c4:74:b4:cd:c7:33:69:42:07:
        4e:4a:63:82:4d:3d:23:ea:44:46:5b:b4:67:4f:ab:1e:fa:59:
        1a:07:b8:3a:f3:43:16:d3:1c:e1:38:2d:84:67:32:75:b2:30:
        88:aa:20:8e:d1:81:33:6f:ec:34:72:0e:da:37:29:35:e3:ad:
        34:a2:f1:af:30:f8:63:45:5e:d7:ae:24:5c:1b:bd:32:6b:31:
        c7:8b:06:ed:75:17:65:68:22:38:f7:ee:fc:79:b2:3d:57:73:
        6c:84:5e:25:d4:0e:e7:5e:52:37:1e:c9:76:05:72:52:4c:a1:
        07:13
-----BEGIN CERTIFICATE-----
MIIClTCCAf6gAwIBAgIBEzANBgkqhkiG9w0BAQUFADBeMQswCQYDVQQGEwJVUzEY
MBYGA1UEChMPVS5TLiBHb3Zlcm5tZW50MQwwCgYDVQQLEwNEb0QxEDAOBgNVBAsT
B1Rlc3RpbmcxFTATBgNVBAMTDFRydXN0IEFuY2hvcjAeFw05ODAxMDExMjAxMDBa
Fw00ODAxMDExMjAxMDBaMF4xCzAJBgNVBAYTAlVTMRgwFgYDVQQKEw9VLlMuIEdv
dmVybm1lbnQxDDAKBgNVBAsTA0RvZDEQMA4GA1UECxMHVGVzdGluZzEVMBMGA1UE
AxMMQ0ExLUNQLjAzLjAyMIGfMA0GCSqGSIb3DQEBAQUAA4GNADCBiQKBgQC4AbP8
gDUUcIa8w4pEsGgbYH2sz08QMUXd4xwx691i9QCcyWSovQO4Jozeb9JwtyN2+f3T
+JqZL/gwUHuLO2IEXpzE2C8FzQg6Ma+TiSrlvGJfecTlSooFmEtD3Xh6I6N5PM1f
pyyY2sOOhARN5S6qR9BOuxkBAqrAT0fgqD2TswIDAQABo2MwYTAPBgNVHRMBAf8E
BTADAQH/MA4GA1UdDwEB/wQEAwIBBjAWBgNVHSAEDzANMAsGCWCGSAFlAwEwATAR
BgNVHQ4ECgQI97nJCqq6+kIwEwYDVR0jBAwwCoAIq5rr+cLnVI8wDQYJKoZIhvcN
AQEFBQADgYEAWwpfh9oOOvj9xHS0zcczaUIHTkpjgk09I+pERlu0Z0+rHvpZGge4
OvNDFtMc4TgthGcydbIwiKogjtGBM2/sNHIO2jcpNeOtNKLxrzD4Y0Ve164kXBu9
Mmsxx4sG7XUXZWgiOPfu/HmyPVdzbIReJdQO515SNx7JdgVyUkyhBxM=
-----END CERTIFICATE-----
