 [ The intermediate certificate is invalid. It has basicConstraints
   and it is not a CA. ]

Certificate:
    Data:
        Version: 3 (0x2)
        Serial Number: 50 (0x32)
        Signature Algorithm: sha1WithRSAEncryption
        Issuer: C=US, O=U.S. Government, OU=Dod, OU=Testing, CN=CA1-IC.02.03
        Validity
            Not Before: Jan  1 12:01:00 1998 GMT
            Not After : Jan  1 12:01:00 2048 GMT
        Subject: C=US, O=U.S. Government, OU=DoD, OU=Testing, CN=User1-IC.02.03
        Subject Public Key Info:
            Public Key Algorithm: rsaEncryption
            RSA Public Key: (1024 bit)
                Modulus (1024 bit):
                    00:b1:9b:a3:dc:84:ba:36:7d:44:55:3e:56:6c:5b:
                    e7:e4:71:d5:57:48:1b:fd:c4:ff:98:57:57:fc:48:
                    38:5b:b8:98:47:d8:87:6b:41:84:fd:aa:20:c1:f6:
                    29:ba:d1:d6:d8:96:e6:de:03:bd:30:81:33:73:4a:
                    2a:aa:7b:e7:0a:62:ba:ee:c4:de:ae:a2:9a:dd:69:
                    2d:b1:96:d7:73:55:2f:ef:35:81:85:97:9c:29:f3:
                    1e:9c:58:8c:c4:c8:aa:a0:a4:3c:80:1e:38:6f:92:
                    04:9d:4c:80:44:5b:2f:e3:41:97:e0:0a:dd:61:b8:
                    4d:e4:3c:bf:0e:eb:d8:21:ab
                Exponent: 65537 (0x10001)
        X509v3 extensions:
            X509v3 Key Usage: critical
                Digital Signature, Non Repudiation, Key Encipherment
            X509v3 Certificate Policies: 
                Policy: 2.16.840.1.101.3.1.48.1

            X509v3 Subject Key Identifier: 
                4B:F1:DB:20:8F:A4:8B:F9
            X509v3 Authority Key Identifier: 
                keyid:3E:C0:60:F6:D3:00:06:10

    Signature Algorithm: sha1WithRSAEncryption
        58:7c:b8:b0:7a:d3:92:a6:35:5e:30:c1:63:95:e9:34:4c:a1:
        3f:a8:6d:72:78:d8:0f:d6:e8:b3:8c:23:c4:f9:49:53:2c:5d:
        21:60:02:5a:b2:c3:13:e4:79:89:10:8e:62:c8:7f:9c:30:09:
        12:d0:94:71:50:12:ba:4b:cf:e9:52:c9:68:58:f2:c5:43:9a:
        0a:9e:89:09:55:7e:b7:19:3b:16:1d:12:fd:4a:f7:67:2c:ac:
        7e:9e:4b:96:53:f5:a6:53:80:dc:df:e4:d4:79:62:96:3a:74:
        f9:b9:d2:88:38:40:d7:ed:e1:26:1d:20:0c:c8:d6:51:d4:6a:
        f7:23
-----BEGIN CERTIFICATE-----
MIIChjCCAe+gAwIBAgIBMjANBgkqhkiG9w0BAQUFADBeMQswCQYDVQQGEwJVUzEY
MBYGA1UEChMPVS5TLiBHb3Zlcm5tZW50MQwwCgYDVQQLEwNEb2QxEDAOBgNVBAsT
B1Rlc3RpbmcxFTATBgNVBAMTDENBMS1JQy4wMi4wMzAeFw05ODAxMDExMjAxMDBa
Fw00ODAxMDExMjAxMDBaMGAxCzAJBgNVBAYTAlVTMRgwFgYDVQQKEw9VLlMuIEdv
dmVybm1lbnQxDDAKBgNVBAsTA0RvRDEQMA4GA1UECxMHVGVzdGluZzEXMBUGA1UE
AxMOVXNlcjEtSUMuMDIuMDMwgZ8wDQYJKoZIhvcNAQEBBQADgY0AMIGJAoGBALGb
o9yEujZ9RFU+Vmxb5+Rx1VdIG/3E/5hXV/xIOFu4mEfYh2tBhP2qIMH2KbrR1tiW
5t4DvTCBM3NKKqp75wpiuu7E3q6imt1pLbGW13NVL+81gYWXnCnzHpxYjMTIqqCk
PIAeOG+SBJ1MgERbL+NBl+AK3WG4TeQ8vw7r2CGrAgMBAAGjUjBQMA4GA1UdDwEB
/wQEAwIF4DAWBgNVHSAEDzANMAsGCWCGSAFlAwEwATARBgNVHQ4ECgQIS/HbII+k
i/kwEwYDVR0jBAwwCoAIPsBg9tMABhAwDQYJKoZIhvcNAQEFBQADgYEAWHy4sHrT
kqY1XjDBY5XpNEyhP6htcnjYD9bos4wjxPlJUyxdIWACWrLDE+R5iRCOYsh/nDAJ
EtCUcVASukvP6VLJaFjyxUOaCp6JCVV+txk7Fh0S/Ur3Zyysfp5LllP1plOA3N/k
1Hliljp0+bnSiDhA1+3hJh0gDMjWUdRq9yM=
-----END CERTIFICATE-----
Certificate:
    Data:
        Version: 3 (0x2)
        Serial Number: 49 (0x31)
        Signature Algorithm: sha1WithRSAEncryption
        Issuer: C=US, O=U.S. Government, OU=DoD, OU=Testing, CN=Trust Anchor
        Validity
            Not Before: Jan  1 12:01:00 1998 GMT
            Not After : Jan  1 12:01:00 2048 GMT
        Subject: C=US, O=U.S. Government, OU=Dod, OU=Testing, CN=CA1-IC.02.03
        Subject Public Key Info:
            Public Key Algorithm: rsaEncryption
            RSA Public Key: (1024 bit)
                Modulus (1024 bit):
                    00:bb:2c:5b:7e:c8:62:2d:40:5a:92:10:f8:b4:dc:
                    80:88:af:9c:9d:5a:71:4f:40:76:5d:10:c3:6e:da:
                    d4:54:dd:78:8e:a5:f6:a6:d7:09:74:c6:00:0f:18:
                    19:10:2b:be:bc:39:f8:9d:a4:ff:e2:d6:18:18:39:
                    4f:e2:b0:e0:79:77:20:0b:b1:cb:c8:43:d5:c9:1b:
                    53:96:41:70:41:2e:02:ae:09:b3:12:e5:fb:83:84:
                    13:5a:e0:a8:85:b8:63:1b:27:7f:d4:8e:5b:91:b0:
                    3f:6a:69:7c:06:51:ab:dc:e3:7e:89:c1:b4:47:bd:
                    6f:05:a2:66:81:61:86:35:85
                Exponent: 65537 (0x10001)
        X509v3 extensions:
            X509v3 Basic Constraints: 
                CA:FALSE
            X509v3 Key Usage: critical
                Certificate Sign, CRL Sign
            X509v3 Certificate Policies: 
                Policy: 2.16.840.1.101.3.1.48.1

            X509v3 Subject Key Identifier: 
                3E:C0:60:F6:D3:00:06:10
            X509v3 Authority Key Identifier: 
                keyid:AB:9A:EB:F9:C2:E7:54:8F

    Signature Algorithm: sha1WithRSAEncryption
        35:97:1a:c9:34:d7:f8:51:a1:b5:15:09:f9:7b:98:03:b8:d1:
        d7:80:89:2f:aa:93:1c:fb:dd:48:c8:07:37:0f:66:19:72:3f:
        ee:c3:b9:23:8b:f5:bd:ac:8e:08:86:10:f6:5b:81:be:b4:d8:
        94:c3:e6:b9:e8:fc:f9:b8:4c:f1:84:d8:a6:28:8e:8d:51:40:
        37:0b:d2:28:0a:c8:f5:4d:82:00:60:5c:a0:13:17:c9:dc:a4:
        92:6f:2a:63:0e:20:b5:84:13:9d:e8:8e:cf:b5:6a:23:da:65:
        2d:60:35:d7:52:11:32:06:b2:0f:70:80:b7:83:6d:a7:37:75:
        55:21
-----BEGIN CERTIFICATE-----
MIICjzCCAfigAwIBAgIBMTANBgkqhkiG9w0BAQUFADBeMQswCQYDVQQGEwJVUzEY
MBYGA1UEChMPVS5TLiBHb3Zlcm5tZW50MQwwCgYDVQQLEwNEb0QxEDAOBgNVBAsT
B1Rlc3RpbmcxFTATBgNVBAMTDFRydXN0IEFuY2hvcjAeFw05ODAxMDExMjAxMDBa
Fw00ODAxMDExMjAxMDBaMF4xCzAJBgNVBAYTAlVTMRgwFgYDVQQKEw9VLlMuIEdv
dmVybm1lbnQxDDAKBgNVBAsTA0RvZDEQMA4GA1UECxMHVGVzdGluZzEVMBMGA1UE
AxMMQ0ExLUlDLjAyLjAzMIGfMA0GCSqGSIb3DQEBAQUAA4GNADCBiQKBgQC7LFt+
yGItQFqSEPi03ICIr5ydWnFPQHZdEMNu2tRU3XiOpfam1wl0xgAPGBkQK768Ofid
pP/i1hgYOU/isOB5dyALscvIQ9XJG1OWQXBBLgKuCbMS5fuDhBNa4KiFuGMbJ3/U
jluRsD9qaXwGUavc436JwbRHvW8FomaBYYY1hQIDAQABo10wWzAJBgNVHRMEAjAA
MA4GA1UdDwEB/wQEAwIBBjAWBgNVHSAEDzANMAsGCWCGSAFlAwEwATARBgNVHQ4E
CgQIPsBg9tMABhAwEwYDVR0jBAwwCoAIq5rr+cLnVI8wDQYJKoZIhvcNAQEFBQAD
gYEANZcayTTX+FGhtRUJ+XuYA7jR14CJL6qTHPvdSMgHNw9mGXI/7sO5I4v1vayO
CIYQ9luBvrTYlMPmuej8+bhM8YTYpiiOjVFANwvSKArI9U2CAGBcoBMXydykkm8q
Yw4gtYQTneiOz7VqI9plLWA111IRMgayD3CAt4Ntpzd1VSE=
-----END CERTIFICATE-----
Certificate:
    Data:
        Version: 3 (0x2)
        Serial Number: 99999 (0x1869f)
        Signature Algorithm: sha1WithRSAEncryption
        Issuer: C=US, O=U.S. Government, OU=DoD, OU=Testing, CN=Trust Anchor
        Validity
            Not Before: Jan  1 12:01:00 1999 GMT
            Not After : Jan  1 12:01:00 2048 GMT
        Subject: C=US, O=U.S. Government, OU=DoD, OU=Testing, CN=Trust Anchor
        Subject Public Key Info:
            Public Key Algorithm: rsaEncryption
            RSA Public Key: (1024 bit)
                Modulus (1024 bit):
                    00:d3:f3:b9:c1:33:b7:3f:a7:27:f6:41:1d:5c:9c:
                    79:9d:aa:d2:95:10:b7:84:ce:da:a3:e5:58:0c:3e:
                    4e:8b:56:bf:3e:aa:21:2d:50:13:fe:f3:19:2e:7a:
                    cb:11:cf:f3:d3:b8:5f:57:9f:9d:97:80:af:1d:95:
                    57:12:df:34:d4:bd:f3:ae:4d:e7:7c:a6:20:d4:04:
                    4e:da:63:61:3e:3d:2a:8d:37:cf:c5:3c:c9:f9:fa:
                    f0:39:48:04:78:bd:b0:dd:f5:24:46:33:a1:46:9f:
                    17:9f:04:bb:cf:37:94:0c:13:43:aa:90:ac:91:78:
                    1d:ba:f3:18:84:2a:82:2b:47
                Exponent: 65537 (0x10001)
        X509v3 extensions:
            X509v3 Subject Key Identifier: 
                AB:9A:EB:F9:C2:E7:54:8F
            X509v3 Basic Constraints: 
                CA:TRUE
            X509v3 Authority Key Identifier: 
                keyid:AB:9A:EB:F9:C2:E7:54:8F

    Signature Algorithm: sha1WithRSAEncryption
        16:56:0f:61:ac:87:8b:4f:eb:64:12:1b:c3:85:59:4a:68:e1:
        3b:a5:21:c1:59:2e:91:ac:68:fe:13:ff:63:6d:ee:55:d4:a0:
        82:4c:37:bc:16:8e:a9:26:61:fe:7f:46:fa:38:1f:13:5c:8a:
        6a:b7:12:47:98:72:b9:b5:56:80:ee:78:95:18:1a:f4:63:70:
        26:39:9b:19:20:84:8d:bb:62:5f:df:2c:a1:3d:fc:1b:d0:3a:
        bb:d8:cc:1b:36:12:a2:ab:ad:3e:e6:e1:52:b4:75:13:11:ec:
        27:95:a6:63:cf:d3:cc:f4:4e:d8:ba:b8:ad:ad:cc:1a:65:a7:
        5a:45
-----BEGIN CERTIFICATE-----
MIICbDCCAdWgAwIBAgIDAYafMA0GCSqGSIb3DQEBBQUAMF4xCzAJBgNVBAYTAlVT
MRgwFgYDVQQKEw9VLlMuIEdvdmVybm1lbnQxDDAKBgNVBAsTA0RvRDEQMA4GA1UE
CxMHVGVzdGluZzEVMBMGA1UEAxMMVHJ1c3QgQW5jaG9yMB4XDTk5MDEwMTEyMDEw
MFoXDTQ4MDEwMTEyMDEwMFowXjELMAkGA1UEBhMCVVMxGDAWBgNVBAoTD1UuUy4g
R292ZXJubWVudDEMMAoGA1UECxMDRG9EMRAwDgYDVQQLEwdUZXN0aW5nMRUwEwYD
VQQDEwxUcnVzdCBBbmNob3IwgZ8wDQYJKoZIhvcNAQEBBQADgY0AMIGJAoGBANPz
ucEztz+nJ/ZBHVyceZ2q0pUQt4TO2qPlWAw+TotWvz6qIS1QE/7zGS56yxHP89O4
X1efnZeArx2VVxLfNNS9865N53ymINQETtpjYT49Ko03z8U8yfn68DlIBHi9sN31
JEYzoUafF58Eu883lAwTQ6qQrJF4HbrzGIQqgitHAgMBAAGjODA2MBEGA1UdDgQK
BAirmuv5wudUjzAMBgNVHRMEBTADAQH/MBMGA1UdIwQMMAqACKua6/nC51SPMA0G
CSqGSIb3DQEBBQUAA4GBABZWD2Gsh4tP62QSG8OFWUpo4TulIcFZLpGsaP4T/2Nt
7lXUoIJMN7wWjqkmYf5/Rvo4HxNcimq3EkeYcrm1VoDueJUYGvRjcCY5mxkghI27
Yl/fLKE9/BvQOrvYzBs2EqKrrT7m4VK0dRMR7CeVpmPP08z0Tti6uK2tzBplp1pF
-----END CERTIFICATE-----
