[ The intermediate certificate does not have a basicConstraints extension.
This chain should not be validated. ]

Certificate:
    Data:
        Version: 3 (0x2)
        Serial Number: 44 (0x2c)
        Signature Algorithm: sha1WithRSAEncryption
        Issuer: C=US, O=U.S. Government, OU=Dod, OU=Testing, CN=CA1-IC.01.01
        Validity
            Not Before: Jan  1 12:01:00 1998 GMT
            Not After : Jan  1 12:01:00 2048 GMT
        Subject: C=US, O=U.S. Government, OU=DoD, OU=Testing, CN=User1-IC.01.01
        Subject Public Key Info:
            Public Key Algorithm: rsaEncryption
            RSA Public Key: (1024 bit)
                Modulus (1024 bit):
                    00:fa:e4:d5:fa:2c:06:ed:21:7a:62:0a:81:30:c2:
                    79:5f:d1:a0:56:db:b2:6d:36:5f:82:df:66:89:d7:
                    29:e1:91:19:86:57:cf:8b:69:5a:06:cd:a6:32:81:
                    ab:57:bf:d9:b3:8e:d4:30:a7:f4:8f:08:da:48:ef:
                    65:d3:a4:69:b9:38:30:b7:ae:44:3a:3f:b2:a9:4d:
                    9d:db:b8:02:be:79:d3:6a:40:a3:80:36:57:44:0b:
                    47:82:03:1c:02:68:0e:9c:6d:48:5a:ea:10:b3:a2:
                    8b:20:b1:f4:ef:55:d7:dc:b0:7b:9a:5c:04:5a:f1:
                    54:45:83:a9:39:c1:51:e0:c9
                Exponent: 65537 (0x10001)
        X509v3 extensions:
            X509v3 Key Usage: critical
                Digital Signature, Non Repudiation, Key Encipherment
            X509v3 Certificate Policies: 
                Policy: 2.16.840.1.101.3.1.48.1

            X509v3 Subject Key Identifier: 
                6C:8E:81:84:00:6B:99:0F
            X509v3 Authority Key Identifier: 
                keyid:F4:72:46:24:95:FB:85:EB

    Signature Algorithm: sha1WithRSAEncryption
        63:36:32:33:4c:1b:cc:d8:59:7e:d0:16:cf:b4:df:16:2e:b8:
        b8:0f:56:99:39:9d:e0:c7:8a:f6:f8:1a:e0:28:6c:c1:3e:07:
        d7:39:5a:57:54:ab:fb:78:6a:a4:69:8e:a0:fe:40:51:df:57:
        22:a3:bf:ba:2f:bf:80:56:9e:b8:e2:c8:f8:04:e6:2b:e5:76:
        28:71:80:9d:e3:30:cd:cc:3d:a9:b5:d1:73:ec:59:a8:61:a3:
        6d:73:1b:dc:1a:30:7b:7a:ab:8f:79:a1:ca:8c:1f:6b:59:fb:
        c7:9c:41:ed:71:0e:a8:ee:ac:7d:6c:4b:74:38:cb:56:8e:2c:
        9f:cf
-----BEGIN CERTIFICATE-----
MIIChjCCAe+gAwIBAgIBLDANBgkqhkiG9w0BAQUFADBeMQswCQYDVQQGEwJVUzEY
MBYGA1UEChMPVS5TLiBHb3Zlcm5tZW50MQwwCgYDVQQLEwNEb2QxEDAOBgNVBAsT
B1Rlc3RpbmcxFTATBgNVBAMTDENBMS1JQy4wMS4wMTAeFw05ODAxMDExMjAxMDBa
Fw00ODAxMDExMjAxMDBaMGAxCzAJBgNVBAYTAlVTMRgwFgYDVQQKEw9VLlMuIEdv
dmVybm1lbnQxDDAKBgNVBAsTA0RvRDEQMA4GA1UECxMHVGVzdGluZzEXMBUGA1UE
AxMOVXNlcjEtSUMuMDEuMDEwgZ8wDQYJKoZIhvcNAQEBBQADgY0AMIGJAoGBAPrk
1fosBu0hemIKgTDCeV/RoFbbsm02X4LfZonXKeGRGYZXz4tpWgbNpjKBq1e/2bOO
1DCn9I8I2kjvZdOkabk4MLeuRDo/sqlNndu4Ar5502pAo4A2V0QLR4IDHAJoDpxt
SFrqELOiiyCx9O9V19ywe5pcBFrxVEWDqTnBUeDJAgMBAAGjUjBQMA4GA1UdDwEB
/wQEAwIF4DAWBgNVHSAEDzANMAsGCWCGSAFlAwEwATARBgNVHQ4ECgQIbI6BhABr
mQ8wEwYDVR0jBAwwCoAI9HJGJJX7heswDQYJKoZIhvcNAQEFBQADgYEAYzYyM0wb
zNhZftAWz7TfFi64uA9WmTmd4MeK9vga4ChswT4H1zlaV1Sr+3hqpGmOoP5AUd9X
IqO/ui+/gFaeuOLI+ATmK+V2KHGAneMwzcw9qbXRc+xZqGGjbXMb3Bowe3qrj3mh
yowfa1n7x5xB7XEOqO6sfWxLdDjLVo4sn88=
-----END CERTIFICATE-----

Certificate:
    Data:
        Version: 3 (0x2)
        Serial Number: 43 (0x2b)
        Signature Algorithm: sha1WithRSAEncryption
        Issuer: C=US, O=U.S. Government, OU=DoD, OU=Testing, CN=Trust Anchor
        Validity
            Not Before: Jan  1 12:01:00 1998 GMT
            Not After : Jan  1 12:01:00 2048 GMT
        Subject: C=US, O=U.S. Government, OU=Dod, OU=Testing, CN=CA1-IC.01.01
        Subject Public Key Info:
            Public Key Algorithm: rsaEncryption
            RSA Public Key: (1024 bit)
                Modulus (1024 bit):
                    00:c3:3a:ed:49:fd:52:33:6c:1e:15:71:2d:83:c1:
                    fd:9f:b0:73:a6:22:3d:e2:6a:d3:3c:cb:ad:55:ec:
                    2a:cd:44:2c:42:59:32:75:3a:cf:1e:fe:61:56:3a:
                    2f:f3:37:ed:1a:7e:2c:c0:d1:4c:c9:0d:37:bc:2f:
                    ef:bf:46:53:fa:f0:81:60:e4:9b:b6:3a:15:ea:40:
                    2d:c7:6d:46:66:43:bb:de:f6:04:1d:59:37:ee:af:
                    7a:04:25:5e:bf:5e:85:44:e1:61:b4:21:ce:c3:d6:
                    9e:c1:10:d6:f7:2d:44:fe:f0:c2:5d:49:ba:13:bc:
                    08:20:03:50:a2:38:8e:b3:45
                Exponent: 65537 (0x10001)
        X509v3 extensions:
            X509v3 Key Usage: critical
                Certificate Sign, CRL Sign
            X509v3 Certificate Policies: 
                Policy: 2.16.840.1.101.3.1.48.1

            X509v3 Subject Key Identifier: 
                F4:72:46:24:95:FB:85:EB
            X509v3 Authority Key Identifier: 
                keyid:AB:9A:EB:F9:C2:E7:54:8F

    Signature Algorithm: sha1WithRSAEncryption
        99:66:27:d1:16:f6:e8:d4:a2:ca:87:67:26:64:9e:2b:b6:bd:
        7f:15:38:be:76:3a:7c:6d:2f:1c:37:2e:ac:4b:ca:ec:62:be:
        3c:98:09:a3:00:68:93:6b:ef:fc:5f:9b:70:b6:a3:38:7d:99:
        0c:99:4d:0e:93:a4:16:a9:2c:55:07:f1:0b:04:29:48:72:e7:
        b3:03:52:02:2f:66:cc:8e:be:f8:c9:87:70:17:7d:29:17:0d:
        a3:19:de:77:0b:83:ac:74:c3:08:cd:fc:7c:6e:f6:2f:88:85:
        7d:56:d4:4e:ff:e5:fa:06:c7:b0:04:55:fc:18:ec:5a:3d:4b:
        cd:9d
-----BEGIN CERTIFICATE-----
MIIChDCCAe2gAwIBAgIBKzANBgkqhkiG9w0BAQUFADBeMQswCQYDVQQGEwJVUzEY
MBYGA1UEChMPVS5TLiBHb3Zlcm5tZW50MQwwCgYDVQQLEwNEb0QxEDAOBgNVBAsT
B1Rlc3RpbmcxFTATBgNVBAMTDFRydXN0IEFuY2hvcjAeFw05ODAxMDExMjAxMDBa
Fw00ODAxMDExMjAxMDBaMF4xCzAJBgNVBAYTAlVTMRgwFgYDVQQKEw9VLlMuIEdv
dmVybm1lbnQxDDAKBgNVBAsTA0RvZDEQMA4GA1UECxMHVGVzdGluZzEVMBMGA1UE
AxMMQ0ExLUlDLjAxLjAxMIGfMA0GCSqGSIb3DQEBAQUAA4GNADCBiQKBgQDDOu1J
/VIzbB4VcS2Dwf2fsHOmIj3iatM8y61V7CrNRCxCWTJ1Os8e/mFWOi/zN+0afizA
0UzJDTe8L++/RlP68IFg5Ju2OhXqQC3HbUZmQ7ve9gQdWTfur3oEJV6/XoVE4WG0
Ic7D1p7BENb3LUT+8MJdSboTvAggA1CiOI6zRQIDAQABo1IwUDAOBgNVHQ8BAf8E
BAMCAQYwFgYDVR0gBA8wDTALBglghkgBZQMBMAEwEQYDVR0OBAoECPRyRiSV+4Xr
MBMGA1UdIwQMMAqACKua6/nC51SPMA0GCSqGSIb3DQEBBQUAA4GBAJlmJ9EW9ujU
osqHZyZkniu2vX8VOL52OnxtLxw3LqxLyuxivjyYCaMAaJNr7/xfm3C2ozh9mQyZ
TQ6TpBapLFUH8QsEKUhy57MDUgIvZsyOvvjJh3AXfSkXDaMZ3ncLg6x0wwjN/Hxu
9i+IhX1W1E7/5foGx7AEVfwY7Fo9S82d
-----END CERTIFICATE-----


Certificate:
    Data:
        Version: 3 (0x2)
        Serial Number: 99999 (0x1869f)
        Signature Algorithm: sha1WithRSAEncryption
        Issuer: C=US, O=U.S. Government, OU=DoD, OU=Testing, CN=Trust Anchor
        Validity
            Not Before: Jan  1 12:01:00 1999 GMT
            Not After : Jan  1 12:01:00 2048 GMT
        Subject: C=US, O=U.S. Government, OU=DoD, OU=Testing, CN=Trust Anchor
        Subject Public Key Info:
            Public Key Algorithm: rsaEncryption
            RSA Public Key: (1024 bit)
                Modulus (1024 bit):
                    00:d3:f3:b9:c1:33:b7:3f:a7:27:f6:41:1d:5c:9c:
                    79:9d:aa:d2:95:10:b7:84:ce:da:a3:e5:58:0c:3e:
                    4e:8b:56:bf:3e:aa:21:2d:50:13:fe:f3:19:2e:7a:
                    cb:11:cf:f3:d3:b8:5f:57:9f:9d:97:80:af:1d:95:
                    57:12:df:34:d4:bd:f3:ae:4d:e7:7c:a6:20:d4:04:
                    4e:da:63:61:3e:3d:2a:8d:37:cf:c5:3c:c9:f9:fa:
                    f0:39:48:04:78:bd:b0:dd:f5:24:46:33:a1:46:9f:
                    17:9f:04:bb:cf:37:94:0c:13:43:aa:90:ac:91:78:
                    1d:ba:f3:18:84:2a:82:2b:47
                Exponent: 65537 (0x10001)
        X509v3 extensions:
            X509v3 Subject Key Identifier: 
                AB:9A:EB:F9:C2:E7:54:8F
            X509v3 Basic Constraints: 
                CA:TRUE
            X509v3 Authority Key Identifier: 
                keyid:AB:9A:EB:F9:C2:E7:54:8F

    Signature Algorithm: sha1WithRSAEncryption
        16:56:0f:61:ac:87:8b:4f:eb:64:12:1b:c3:85:59:4a:68:e1:
        3b:a5:21:c1:59:2e:91:ac:68:fe:13:ff:63:6d:ee:55:d4:a0:
        82:4c:37:bc:16:8e:a9:26:61:fe:7f:46:fa:38:1f:13:5c:8a:
        6a:b7:12:47:98:72:b9:b5:56:80:ee:78:95:18:1a:f4:63:70:
        26:39:9b:19:20:84:8d:bb:62:5f:df:2c:a1:3d:fc:1b:d0:3a:
        bb:d8:cc:1b:36:12:a2:ab:ad:3e:e6:e1:52:b4:75:13:11:ec:
        27:95:a6:63:cf:d3:cc:f4:4e:d8:ba:b8:ad:ad:cc:1a:65:a7:
        5a:45
-----BEGIN CERTIFICATE-----
MIICbDCCAdWgAwIBAgIDAYafMA0GCSqGSIb3DQEBBQUAMF4xCzAJBgNVBAYTAlVT
MRgwFgYDVQQKEw9VLlMuIEdvdmVybm1lbnQxDDAKBgNVBAsTA0RvRDEQMA4GA1UE
CxMHVGVzdGluZzEVMBMGA1UEAxMMVHJ1c3QgQW5jaG9yMB4XDTk5MDEwMTEyMDEw
MFoXDTQ4MDEwMTEyMDEwMFowXjELMAkGA1UEBhMCVVMxGDAWBgNVBAoTD1UuUy4g
R292ZXJubWVudDEMMAoGA1UECxMDRG9EMRAwDgYDVQQLEwdUZXN0aW5nMRUwEwYD
VQQDEwxUcnVzdCBBbmNob3IwgZ8wDQYJKoZIhvcNAQEBBQADgY0AMIGJAoGBANPz
ucEztz+nJ/ZBHVyceZ2q0pUQt4TO2qPlWAw+TotWvz6qIS1QE/7zGS56yxHP89O4
X1efnZeArx2VVxLfNNS9865N53ymINQETtpjYT49Ko03z8U8yfn68DlIBHi9sN31
JEYzoUafF58Eu883lAwTQ6qQrJF4HbrzGIQqgitHAgMBAAGjODA2MBEGA1UdDgQK
BAirmuv5wudUjzAMBgNVHRMEBTADAQH/MBMGA1UdIwQMMAqACKua6/nC51SPMA0G
CSqGSIb3DQEBBQUAA4GBABZWD2Gsh4tP62QSG8OFWUpo4TulIcFZLpGsaP4T/2Nt
7lXUoIJMN7wWjqkmYf5/Rvo4HxNcimq3EkeYcrm1VoDueJUYGvRjcCY5mxkghI27
Yl/fLKE9/BvQOrvYzBs2EqKrrT7m4VK0dRMR7CeVpmPP08z0Tti6uK2tzBplp1pF
-----END CERTIFICATE-----
