[ There is no chain here. This chain is not valid. ]

Certificate:
    Data:
        Version: 3 (0x2)
        Serial Number: 26 (0x1a)
        Signature Algorithm: sha1WithRSAEncryption
        Issuer: C=US, O=U.S. Government, OU=Dod, OU=Testing, CN=CA1-CP.99.99
        Validity
            Not Before: Jan  1 12:01:00 1998 GMT
            Not After : Jan  1 12:01:00 2048 GMT
        Subject: C=US, O=U.S. Government, OU=DoD, OU=Testing, CN=User1-CP.04.01
        Subject Public Key Info:
            Public Key Algorithm: rsaEncryption
            RSA Public Key: (1024 bit)
                Modulus (1024 bit):
                    00:f8:80:64:a5:cf:8c:af:23:bd:a3:63:df:85:72:
                    9f:22:8f:2b:b7:50:b4:5c:ac:04:f2:85:5b:96:35:
                    05:cf:8e:32:cc:9d:da:93:e9:42:82:58:71:04:cc:
                    32:89:a5:02:aa:01:bd:25:d4:24:23:0d:97:2f:c1:
                    c5:5b:af:9f:b9:7a:23:d7:2b:b7:1e:8f:8c:10:54:
                    94:4c:dd:72:cb:1c:69:a1:1a:1e:e0:82:56:5f:8c:
                    b2:7a:fa:e9:c4:95:dc:6a:95:18:08:6e:8e:e9:fc:
                    d7:e9:72:ba:b7:13:12:88:37:7e:db:28:87:06:d0:
                    9d:f0:3b:ea:a3:54:fc:dd:ff
                Exponent: 65537 (0x10001)
        X509v3 extensions:
            X509v3 Key Usage: critical
                Digital Signature, Non Repudiation, Key Encipherment
            X509v3 Certificate Policies: 
                Policy: 2.16.840.1.101.3.1.48.1

            X509v3 Subject Key Identifier: 
                25:93:C3:6D:FD:B1:36:FF
            X509v3 Authority Key Identifier: 
                keyid:39:9B:DF:A6:1E:14:BB:D6

    Signature Algorithm: sha1WithRSAEncryption
        65:fe:0b:d5:10:c7:0d:7c:30:03:60:a0:70:88:4c:e0:20:1f:
        67:bd:82:47:6c:ce:6a:7d:1a:b7:7f:15:54:50:77:bb:db:ec:
        e1:52:f0:15:ca:ce:40:22:23:0d:b7:4b:8a:37:34:5d:62:e2:
        99:ae:2f:08:3d:6a:ae:cb:fa:1e:4e:7e:eb:5d:77:1d:f1:4d:
        98:3f:26:a7:a5:f9:8c:0c:28:34:f6:bf:23:89:26:14:e0:3c:
        88:89:b8:4d:39:3b:33:be:6f:43:20:90:4c:f1:b4:57:36:d4:
        36:ed:ee:c1:36:d7:2a:6e:4c:13:d0:b9:30:53:1f:ef:3d:f8:
        ec:23
-----BEGIN CERTIFICATE-----
MIIChjCCAe+gAwIBAgIBGjANBgkqhkiG9w0BAQUFADBeMQswCQYDVQQGEwJVUzEY
MBYGA1UEChMPVS5TLiBHb3Zlcm5tZW50MQwwCgYDVQQLEwNEb2QxEDAOBgNVBAsT
B1Rlc3RpbmcxFTATBgNVBAMTDENBMS1DUC45OS45OTAeFw05ODAxMDExMjAxMDBa
Fw00ODAxMDExMjAxMDBaMGAxCzAJBgNVBAYTAlVTMRgwFgYDVQQKEw9VLlMuIEdv
dmVybm1lbnQxDDAKBgNVBAsTA0RvRDEQMA4GA1UECxMHVGVzdGluZzEXMBUGA1UE
AxMOVXNlcjEtQ1AuMDQuMDEwgZ8wDQYJKoZIhvcNAQEBBQADgY0AMIGJAoGBAPiA
ZKXPjK8jvaNj34VynyKPK7dQtFysBPKFW5Y1Bc+OMsyd2pPpQoJYcQTMMomlAqoB
vSXUJCMNly/BxVuvn7l6I9crtx6PjBBUlEzdcsscaaEaHuCCVl+Msnr66cSV3GqV
GAhujun81+lyurcTEog3ftsohwbQnfA76qNU/N3/AgMBAAGjUjBQMA4GA1UdDwEB
/wQEAwIF4DAWBgNVHSAEDzANMAsGCWCGSAFlAwEwATARBgNVHQ4ECgQIJZPDbf2x
Nv8wEwYDVR0jBAwwCoAIOZvfph4Uu9YwDQYJKoZIhvcNAQEFBQADgYEAZf4L1RDH
DXwwA2CgcIhM4CAfZ72CR2zOan0at38VVFB3u9vs4VLwFcrOQCIjDbdLijc0XWLi
ma4vCD1qrsv6Hk5+6113HfFNmD8mp6X5jAwoNPa/I4kmFOA8iIm4TTk7M75vQyCQ
TPG0VzbUNu3uwTbXKm5ME9C5MFMf7z347CM=
-----END CERTIFICATE-----

Certificate:
    Data:
        Version: 3 (0x2)
        Serial Number: 25 (0x19)
        Signature Algorithm: sha1WithRSAEncryption
        Issuer: C=US, O=U.S. Government, OU=DoD, OU=Testing, CN=Trust Anchor
        Validity
            Not Before: Jan  1 12:01:00 1998 GMT
            Not After : Jan  1 12:01:00 2048 GMT
        Subject: C=US, O=U.S. Government, OU=Dod, OU=Testing, CN=CA1-CP.04.01
        Subject Public Key Info:
            Public Key Algorithm: rsaEncryption
            RSA Public Key: (1024 bit)
                Modulus (1024 bit):
                    00:b9:50:9f:8a:32:3f:2d:02:6c:eb:dc:e1:98:2f:
                    68:12:15:c3:53:7f:c8:a4:f9:95:71:95:a3:d5:18:
                    7c:92:2a:36:10:04:01:1b:79:f8:5f:83:93:ec:d9:
                    a2:2e:a8:1c:18:91:bb:45:5e:e1:e2:7f:91:84:86:
                    03:9b:03:82:27:0b:21:12:79:18:d8:2c:67:15:32:
                    ac:12:67:30:0e:14:04:74:74:fd:4b:ce:0c:d0:b3:
                    76:60:1b:d2:57:e4:c3:b9:c0:46:7c:20:c9:d5:37:
                    83:ad:bb:85:c8:95:64:a0:22:95:0d:4b:6b:f2:7a:
                    df:19:8b:bb:7d:7d:7f:89:7b
                Exponent: 65537 (0x10001)
        X509v3 extensions:
            X509v3 Basic Constraints: critical
                CA:TRUE
            X509v3 Key Usage: critical
                Certificate Sign, CRL Sign
            X509v3 Certificate Policies: 
                Policy: 2.16.840.1.101.3.1.48.1

            X509v3 Subject Key Identifier: 
                39:9B:DF:A6:1E:14:BB:D6
            X509v3 Authority Key Identifier: 
                keyid:AB:9A:EB:F9:C2:E7:54:8F

    Signature Algorithm: sha1WithRSAEncryption
        5c:cc:ac:72:61:a9:29:22:c6:de:14:25:b4:c4:0b:7a:0c:b4:
        fa:0e:70:ce:03:ab:6c:53:96:c5:99:a2:54:d4:7e:cd:2b:07:
        0c:3d:d4:00:71:f8:4b:24:e8:ce:5a:28:0b:48:c0:63:8c:80:
        85:9e:51:5f:a4:92:24:ac:7d:7c:7b:0e:64:3f:65:74:29:ac:
        b7:5e:2a:2e:4d:e9:90:8f:8c:d1:08:8f:05:99:15:4f:1e:7f:
        ed:d4:76:c0:69:2e:34:a4:95:58:7e:b0:a0:ea:bb:05:b1:33:
        a4:ee:f1:32:5a:d4:af:ab:60:1e:de:03:73:a1:2f:b7:5a:55:
        66:5b
-----BEGIN CERTIFICATE-----
MIIClTCCAf6gAwIBAgIBGTANBgkqhkiG9w0BAQUFADBeMQswCQYDVQQGEwJVUzEY
MBYGA1UEChMPVS5TLiBHb3Zlcm5tZW50MQwwCgYDVQQLEwNEb0QxEDAOBgNVBAsT
B1Rlc3RpbmcxFTATBgNVBAMTDFRydXN0IEFuY2hvcjAeFw05ODAxMDExMjAxMDBa
Fw00ODAxMDExMjAxMDBaMF4xCzAJBgNVBAYTAlVTMRgwFgYDVQQKEw9VLlMuIEdv
dmVybm1lbnQxDDAKBgNVBAsTA0RvZDEQMA4GA1UECxMHVGVzdGluZzEVMBMGA1UE
AxMMQ0ExLUNQLjA0LjAxMIGfMA0GCSqGSIb3DQEBAQUAA4GNADCBiQKBgQC5UJ+K
Mj8tAmzr3OGYL2gSFcNTf8ik+ZVxlaPVGHySKjYQBAEbefhfg5Ps2aIuqBwYkbtF
XuHif5GEhgObA4InCyESeRjYLGcVMqwSZzAOFAR0dP1LzgzQs3ZgG9JX5MO5wEZ8
IMnVN4Otu4XIlWSgIpUNS2vyet8Zi7t9fX+JewIDAQABo2MwYTAPBgNVHRMBAf8E
BTADAQH/MA4GA1UdDwEB/wQEAwIBBjAWBgNVHSAEDzANMAsGCWCGSAFlAwEwATAR
BgNVHQ4ECgQIOZvfph4Uu9YwEwYDVR0jBAwwCoAIq5rr+cLnVI8wDQYJKoZIhvcN
AQEFBQADgYEAXMyscmGpKSLG3hQltMQLegy0+g5wzgOrbFOWxZmiVNR+zSsHDD3U
AHH4SyTozlooC0jAY4yAhZ5RX6SSJKx9fHsOZD9ldCmst14qLk3pkI+M0QiPBZkV
Tx5/7dR2wGkuNKSVWH6woOq7BbEzpO7xMlrUr6tgHt4Dc6Evt1pVZls=
-----END CERTIFICATE-----

