X.509 Certificate Information:
	Version: 3
	Serial Number (hex): 5601474a2a8dc330
	Issuer: CN=IETF Test Demo
	Validity:
		Not Before: Mon Aug 01 12:19:24 UTC 2016
		Not After: Mon Dec 31 23:59:59 UTC 2040
	Subject: CN=IETF Test Demo
	Subject Public Key Algorithm: ECDH (X25519)
	Algorithm Security Level: High (256 bits)
		Curve:	X25519
		X:
			85:20:f0:09:89:30:a7:54:74:8b:7d:dc:b4:3e:f7:5a
			0d:bf:3a:0d:26:38:1a:f4:eb:a4:a9:8e:aa:9b:4e:6a
	Extensions:
		Basic Constraints (critical):
			Certificate Authority (CA): FALSE
		Key Usage (not critical):
			Key agreement.
		Subject Key Identifier (not critical):
			9b1f5eeded043385e4f7bc623c5975b90bc8bb3b
	Signature Algorithm: EdDSA-Ed25519
	Signature:
		af:23:01:fe:dd:c9:e6:ff:c1:cc:a7:3d:74:d6:48:a4
		39:80:82:cd:db:69:b1:4e:4d:06:ec:f8:1a:25:ce:50
		d4:c2:c3:eb:74:6c:4e:dd:83:46:85:6e:c8:6f:3d:ce
		1a:18:65:c5:7a:c2:7b:50:a0:c3:50:07:f5:e7:d9:07
Other Information:
	Fingerprint:
		sha1:8b011a41d9b72f9848b1dcbd3a038fa8c9d0a536
		sha256:180516f0a03e4893d234a28f3ad28921bc35d1b12bd35134847240dafb715a11
	Public Key ID:
		sha1:fa752c35cb9a51d2069147e6e682155aaf2e5836
		sha256:291c5293e030452a599851a7c7298f3f16c3ff1bdfafcb598927f2631f9fa641
	Public Key PIN:
		pin-sha256:KRxSk+AwRSpZmFGnxymPPxbD/xvfr8tZiSfyYx+fpkE=

-----BEGIN CERTIFICATE-----
MIIBLDCB36ADAgECAghWAUdKKo3DMDAFBgMrZXAwGTEXMBUGA1UEAwwOSUVURiBU
ZXN0IERlbW8wHhcNMTYwODAxMTIxOTI0WhcNNDAxMjMxMjM1OTU5WjAZMRcwFQYD
VQQDDA5JRVRGIFRlc3QgRGVtbzAqMAUGAytlbgMhAIUg8AmJMKdUdIt93LQ+91oN
vzoNJjga9OukqY6qm05qo0UwQzAPBgNVHRMBAf8EBTADAQEAMA4GA1UdDwEBAAQE
AwIDCDAgBgNVHQ4BAQAEFgQUmx9e7e0EM4Xk97xiPFl1uQvIuzswBQYDK2VwA0EA
ryMB/t3J5v/BzKc9dNZIpDmAgs3babFOTQbs+BolzlDUwsPrdGxO3YNGhW7Ibz3O
GhhlxXrCe1Cgw1AH9efZBw==
-----END CERTIFICATE-----
