Certificate:
    Data:
        Version: 3 (0x2)
        Serial Number: 1 (0x1)
        Signature Algorithm: md5WithRSAEncryption
        Issuer: C=GR, ST=Attiki, L=Athina, O=GNUTLS TEST CA, OU=GNUTLS DEVEL., CN=GNUTLS TEST CA/Email=nmav@hellug.gr
        Validity
            Not Before: Jul 20 07:16:46 2001 GMT
            Not After : Jul 20 07:16:46 2002 GMT
        Subject: C=GR, ST=Attiki, L=Athina, O=GNUTLS HTTP SERVER, OU=GNUTLS HTTP SERVER, CN=localhost/Email=nmav@hellug.gr
        Subject Public Key Info:
            Public Key Algorithm: rsaEncryption
            RSA Public Key: (1024 bit)
                Modulus (1024 bit):
                    00:e0:c3:95:0b:66:ec:bf:a9:1f:9c:34:f6:e2:8f:
                    5e:22:9a:d4:fe:1a:7b:54:13:cc:39:81:c0:b8:7e:
                    c1:43:1b:a4:fc:21:33:4d:ac:ac:14:69:d8:64:04:
                    80:61:28:47:bd:cf:58:68:76:85:23:3c:4a:5a:c4:
                    97:77:2a:9d:7b:93:45:5b:9b:03:d3:74:ae:db:f2:
                    67:f5:24:0c:7f:36:82:a3:f0:85:de:b7:e0:ba:72:
                    2f:39:ef:81:98:a3:12:32:a4:96:c7:36:c5:5b:27:
                    0e:ff:7e:be:71:4a:23:5e:bf:e0:ef:8d:13:4b:67:
                    68:d3:b6:88:df:a5:21:73:c1
                Exponent: 65537 (0x10001)
        X509v3 extensions:
            X509v3 Authority Key Identifier: 
                keyid:84:90:E8:0D:36:F0:72:E9:BD:05:A5:88:39:D7:11:C6:5A:56:45:BC

            X509v3 Extended Key Usage: 
                TLS Web Server Authentication, TLS Web Client Authentication, Microsoft Server Gated Crypto, Netscape Server Gated Crypto
            X509v3 Basic Constraints: critical
                CA:FALSE
    Signature Algorithm: md5WithRSAEncryption
        14:5e:87:41:5c:3e:23:69:01:1a:a3:e7:e4:82:f1:98:ee:e0:
        15:49:f7:79:45:46:6d:2d:e5:83:44:9a:c6:ba:c6:26:a5:a8:
        94:95:60:f7:1a:03:f0:45:e2:79:97:96:52:fa:cb:35:f7:89:
        8a:74:5b:08:7e:7e:05:84:a7:17:5a:70:f1:c0:ac:46:a7:c8:
        3a:4d:38:2a:f0:11:b6:cc:63:5c:b0:2a:2a:dd:37:86:f4:b3:
        70:dd:0c:d0:f9:53:59:c7:9d:66:d6:f1:03:7f:a4:63:20:58:
        05:43:78:3c:33:99:bd:9f:a7:5b:bf:64:a6:72:63:f6:02:d0:
        ec:d3
-----BEGIN CERTIFICATE-----
MIIDEzCCAnygAwIBAgIBATANBgkqhkiG9w0BAQQFADCBmDELMAkGA1UEBhMCR1Ix
DzANBgNVBAgTBkF0dGlraTEPMA0GA1UEBxMGQXRoaW5hMRcwFQYDVQQKEw5HTlVU
TFMgVEVTVCBDQTEWMBQGA1UECxMNR05VVExTIERFVkVMLjEXMBUGA1UEAxMOR05V
VExTIFRFU1QgQ0ExHTAbBgkqhkiG9w0BCQEWDm5tYXZAaGVsbHVnLmdyMB4XDTAx
MDcyMDA3MTY0NloXDTAyMDcyMDA3MTY0NlowgZwxCzAJBgNVBAYTAkdSMQ8wDQYD
VQQIEwZBdHRpa2kxDzANBgNVBAcTBkF0aGluYTEbMBkGA1UEChMSR05VVExTIEhU
VFAgU0VSVkVSMRswGQYDVQQLExJHTlVUTFMgSFRUUCBTRVJWRVIxEjAQBgNVBAMT
CWxvY2FsaG9zdDEdMBsGCSqGSIb3DQEJARYObm1hdkBoZWxsdWcuZ3IwgZ8wDQYJ
KoZIhvcNAQEBBQADgY0AMIGJAoGBAODDlQtm7L+pH5w09uKPXiKa1P4ae1QTzDmB
wLh+wUMbpPwhM02srBRp2GQEgGEoR73PWGh2hSM8SlrEl3cqnXuTRVubA9N0rtvy
Z/UkDH82gqPwhd634LpyLznvgZijEjKklsc2xVsnDv9+vnFKI16/4O+NE0tnaNO2
iN+lIXPBAgMBAAGjZzBlMB8GA1UdIwQYMBaAFISQ6A028HLpvQWliDnXEcZaVkW8
MDQGA1UdJQQtMCsGCCsGAQUFBwMBBggrBgEFBQcDAgYKKwYBBAGCNwoDAwYJYIZI
AYb4QgQBMAwGA1UdEwEB/wQCMAAwDQYJKoZIhvcNAQEEBQADgYEAFF6HQVw+I2kB
GqPn5ILxmO7gFUn3eUVGbS3lg0SaxrrGJqWolJVg9xoD8EXieZeWUvrLNfeJinRb
CH5+BYSnF1pw8cCsRqfIOk04KvARtsxjXLAqKt03hvSzcN0M0PlTWcedZtbxA3+k
YyBYBUN4PDOZvZ+nW79kpnJj9gLQ7NM=
-----END CERTIFICATE-----
